(dp0
Vnode1
p1
(dp2
S'VM_Task_1'
p3
(iGuest
Guest
p4
(dp5
S'max_cpu'
p6
F1.0
sS'start_time'
p7
F1415664425.53061
sS'vmid'
p8
g3
sS'max_memory'
p9
F2157152.0
sS'io'
p10
F1.0
sS'vmip'
p11
S'192.168.1.2'
p12
sS'current_cpu'
p13
F1.0
sS'current_memory'
p14
F2102152.0
sbsS'VM_Task_15'
p15
(iGuest
Guest
p16
(dp17
g6
F1.0
sg7
F1415665148.485132
sg8
g15
sg9
F2157152.0
sg10
F1.0
sg11
S'192.168.1.9'
p18
sg13
F1.0
sg14
F2102152.0
sbsS'VM_Task_14'
p19
(iGuest
Guest
p20
(dp21
g6
F1.0
sg7
F1415665001.414213
sg8
g19
sg9
F2157152.0
sg10
F1.0
sg11
S'192.168.1.8'
p22
sg13
F1.0
sg14
F2102152.0
sbsS'VM_Task_11'
p23
(iGuest
Guest
p24
(dp25
g6
F1.0
sg7
F1415664719.653959
sg8
g23
sg9
F2157152.0
sg10
F1.0
sg11
S'192.168.1.5'
p26
sg13
F1.0
sg14
F2102152.0
sbsS'VM_Task_10'
p27
(iGuest
Guest
p28
(dp29
g6
F1.0
sg7
F1415664636.089443
sg8
g27
sg9
F2157152.0
sg10
F1.0
sg11
S'192.168.1.3'
p30
sg13
F1.0
sg14
F2102152.0
sbsS'VM_Task_13'
p31
(iGuest
Guest
p32
(dp33
g6
F1.0
sg7
F1415664916.107902
sg8
g31
sg9
F2157152.0
sg10
F1.0
sg11
S'192.168.1.7'
p34
sg13
F1.0
sg14
F2102152.0
sbsS'VM_Task_12'
p35
(iGuest
Guest
p36
(dp37
g6
F1.0
sg7
F1415664818.168893
sg8
g35
sg9
F2157152.0
sg10
F1.0
sg11
S'192.168.1.6'
p38
sg13
F1.0
sg14
F2102152.0
sbssVnode3
p39
(dp40
sVnode2
p41
(dp42
sVnode4
p43
(dp44
s.