(dp0
Vnode1
p1
(dp2
S'VM_Task_15'
p3
(iGuest
Guest
p4
(dp5
S'max_cpu'
p6
F1.0
sS'start_time'
p7
F1415671456.429239
sS'vmid'
p8
g3
sS'max_memory'
p9
F2157152.0
sS'io'
p10
F1.0
sS'vmip'
p11
S'192.168.1.22'
p12
sS'current_cpu'
p13
F1.0
sS'current_memory'
p14
F2102152.0
sbsS'VM_Task_10'
p15
(iGuest
Guest
p16
(dp17
g6
F1.0
sg7
F1416009507.296716
sg8
S'VM_Task_10'
p18
sg9
F2157152.0
sg10
F1.0
sg11
S'192.168.1.4'
p19
sg13
F1.0
sg14
F2102152.0
sbssVnode3
p20
(dp21
S'VM_Task_2'
p22
(iGuest
Guest
p23
(dp24
g6
F1.0
sg7
F1415672247.592255
sg8
g22
sg9
F2157152.0
sg10
F1.0
sg11
S'192.168.1.5'
p25
sg13
F1.0
sg14
F2102152.0
sbsS'VM_Task_20'
p26
(iGuest
Guest
p27
(dp28
g6
F1.0
sg7
F1415672413.44706
sg8
g26
sg9
F2157152.0
sg10
F1.0
sg11
S'192.168.1.6'
p29
sg13
F1.0
sg14
F2102152.0
sbsS'VM_Task_21'
p30
(iGuest
Guest
p31
(dp32
g6
F1.0
sg7
F1415672563.49736
sg8
g30
sg9
F2157152.0
sg10
F1.0
sg11
S'192.168.1.25'
p33
sg13
F1.0
sg14
F2102152.0
sbsS'VM_Task_19'
p34
(iGuest
Guest
p35
(dp36
g6
F1.0
sg7
F1415672097.351452
sg8
g34
sg9
F2157152.0
sg10
F1.0
sg11
S'192.168.1.3'
p37
sg13
F1.0
sg14
F2102152.0
sbsS'VM_Task_18'
p38
(iGuest
Guest
p39
(dp40
g6
F1.0
sg7
F1415671947.339574
sg8
g38
sg9
F2157152.0
sg10
F1.0
sg11
S'192.168.1.2'
p41
sg13
F1.0
sg14
F2102152.0
sbsS'VM_Task_17'
p42
(iGuest
Guest
p43
(dp44
g6
F1.0
sg7
F1415671781.769428
sg8
g42
sg9
F2157152.0
sg10
F1.0
sg11
S'192.168.1.24'
p45
sg13
F1.0
sg14
F2102152.0
sbsS'VM_Task_16'
p46
(iGuest
Guest
p47
(dp48
g6
F1.0
sg7
F1415671616.818167
sg8
g46
sg9
F2157152.0
sg10
F1.0
sg11
S'192.168.1.23'
p49
sg13
F1.0
sg14
F2102152.0
sbssVnode2
p50
(dp51
S'VM_Task_22'
p52
(iGuest
Guest
p53
(dp54
g6
F1.0
sg7
F1415672729.795705
sg8
g52
sg9
F2157152.0
sg10
F1.0
sg11
S'192.168.1.26'
p55
sg13
F1.0
sg14
F2102152.0
sbsS'VM_Task_23'
p56
(iGuest
Guest
p57
(dp58
g6
F1.0
sg7
F1415672896.124606
sg8
g56
sg9
F2157152.0
sg10
F1.0
sg11
S'192.168.1.27'
p59
sg13
F1.0
sg14
F2102152.0
sbsS'VM_Task_24'
p60
(iGuest
Guest
p61
(dp62
g6
F1.0
sg7
F1415673061.491896
sg8
g60
sg9
F2157152.0
sg10
F1.0
sg11
S'192.168.1.7'
p63
sg13
F1.0
sg14
F2102152.0
sbsS'VM_Task_25'
p64
(iGuest
Guest
p65
(dp66
g6
F1.0
sg7
F1415673213.307698
sg8
g64
sg9
F2157152.0
sg10
F1.0
sg11
S'192.168.1.8'
p67
sg13
F1.0
sg14
F2102152.0
sbsS'VM_Task_26'
p68
(iGuest
Guest
p69
(dp70
g6
F1.0
sg7
F1415673363.840114
sg8
g68
sg9
F2157152.0
sg10
F1.0
sg11
S'192.168.1.9'
p71
sg13
F1.0
sg14
F2102152.0
sbsS'VM_Task_27'
p72
(iGuest
Guest
p73
(dp74
g6
F1.0
sg7
F1415673514.374394
sg8
g72
sg9
F2157152.0
sg10
F1.0
sg11
S'192.168.1.10'
p75
sg13
F1.0
sg14
F2102152.0
sbsS'VM_Task_28'
p76
(iGuest
Guest
p77
(dp78
g6
F1.0
sg7
F1415673664.919567
sg8
g76
sg9
F2157152.0
sg10
F1.0
sg11
S'192.168.1.15'
p79
sg13
F1.0
sg14
F2102152.0
sbssVnode4
p80
(dp81
S'VM_Task_3'
p82
(iGuest
Guest
p83
(dp84
g6
F1.0
sg7
F1415673964.388538
sg8
g82
sg9
F2157152.0
sg10
F1.0
sg11
S'192.168.1.28'
p85
sg13
F1.0
sg14
F2102152.0
sbsS'VM_Task_35'
p86
(iGuest
Guest
p87
(dp88
g6
F1.0
sg7
F1415740341.77282
sg8
g86
sg9
F2157152.0
sg10
F1.0
sg11
S'192.168.1.35'
p89
sg13
F1.0
sg14
F2102152.0
sbsS'VM_Task_34'
p90
(iGuest
Guest
p91
(dp92
g6
F1.0
sg7
F1415674756.026547
sg8
g90
sg9
F2157152.0
sg10
F1.0
sg11
S'192.168.1.37'
p93
sg13
F1.0
sg14
F2102152.0
sbsS'VM_Task_33'
p94
(iGuest
Guest
p95
(dp96
g6
F1.0
sg7
F1415674590.825967
sg8
g94
sg9
F2157152.0
sg10
F1.0
sg11
S'192.168.1.36'
p97
sg13
F1.0
sg14
F2102152.0
sbsS'VM_Task_32'
p98
(iGuest
Guest
p99
(dp100
g6
F1.0
sg7
F1415674425.764519
sg8
g98
sg9
F2157152.0
sg10
F1.0
sg11
S'192.168.1.35'
p101
sg13
F1.0
sg14
F2102152.0
sbsS'VM_Task_31'
p102
(iGuest
Guest
p103
(dp104
g6
F1.0
sg7
F1415674279.906909
sg8
g102
sg9
F2157152.0
sg10
F1.0
sg11
S'192.168.1.30'
p105
sg13
F1.0
sg14
F2102152.0
sbsS'VM_Task_30'
p106
(iGuest
Guest
p107
(dp108
g6
F1.0
sg7
F1415674114.97589
sg8
g106
sg9
F2157152.0
sg10
F1.0
sg11
S'192.168.1.29'
p109
sg13
F1.0
sg14
F2102152.0
sbss.