(dp0
Vnode1
p1
(dp2
S'VM_Task_18'
p3
(iGuest
Guest
p4
(dp5
S'max_cpu'
p6
F8.0
sS'start_time'
p7
S'2014-12-17 16:10:31.118115'
p8
sS'vmid'
p9
g3
sS'max_memory'
p10
F2162152.0
sS'io'
p11
F1.0
sS'vmip'
p12
S'192.168.1.11'
p13
sS'current_cpu'
p14
F1.0
sS'current_memory'
p15
F2102152.0
sbsS'VM_Task_15'
p16
(iGuest
Guest
p17
(dp18
g6
F8.0
sg7
S'2014-12-17 16:04:14.229903'
p19
sg9
g16
sg10
F2162152.0
sg11
F1.0
sg12
S'192.168.1.11'
p20
sg14
F1.0
sg15
F2102152.0
sbsS'VM_Task_14'
p21
(iGuest
Guest
p22
(dp23
g6
F8.0
sg7
S'2014-12-17 16:02:05.032387'
p24
sg9
g21
sg10
F2162152.0
sg11
F1.0
sg12
S'192.168.1.11'
p25
sg14
F1.0
sg15
F2102152.0
sbsS'VM_Task_17'
p26
(iGuest
Guest
p27
(dp28
g6
F8.0
sg7
S'2014-12-17 16:08:26.967223'
p29
sg9
g26
sg10
F2162152.0
sg11
F1.0
sg12
S'192.168.1.11'
p30
sg14
F1.0
sg15
F2102152.0
sbsS'VM_Task_16'
p31
(iGuest
Guest
p32
(dp33
g6
F8.0
sg7
S'2014-12-17 16:06:20.314261'
p34
sg9
g31
sg10
F2162152.0
sg11
F1.0
sg12
S'192.168.1.11'
p35
sg14
F1.0
sg15
F2102152.0
sbsS'VM_Task_13'
p36
(iGuest
Guest
p37
(dp38
g6
F8.0
sg7
S'2014-12-17 15:59:56.213032'
p39
sg9
g36
sg10
F2162152.0
sg11
F1.0
sg12
S'192.168.1.11'
p40
sg14
F1.0
sg15
F2102152.0
sbsS'VM_Task_12'
p41
(iGuest
Guest
p42
(dp43
g6
F8.0
sg7
S'2014-12-17 15:57:49.086266'
p44
sg9
g41
sg10
F2162152.0
sg11
F1.0
sg12
S'192.168.1.11'
p45
sg14
F1.0
sg15
F2102152.0
sbssVnode3
p46
(dp47
S'VM_Task_20'
p48
(iGuest
Guest
p49
(dp50
g6
F8.0
sg7
S'2014-12-17 16:19:49.994923'
p51
sg9
g48
sg10
F2162152.0
sg11
F1.0
sg12
S'192.168.1.13'
p52
sg14
F1.0
sg15
F2102152.0
sbsS'VM_Task_11'
p53
(iGuest
Guest
p54
(dp55
g6
F8.0
sg7
S'2014-12-17 15:55:47.469169'
p56
sg9
S'VM_Task_11'
p57
sg10
F2162152.0
sg11
F1.0
sg12
S'192.168.1.62'
p58
sg14
F4.0
sg15
F2145348.0
sbsS'VM_Task_19'
p59
(iGuest
Guest
p60
(dp61
g6
F8.0
sg7
S'2014-12-17 16:13:37.638605'
p62
sg9
g59
sg10
F2162152.0
sg11
F1.0
sg12
S'192.168.1.13'
p63
sg14
F1.0
sg15
F2102152.0
sbsS'VM_Task_2'
p64
(iGuest
Guest
p65
(dp66
g6
F8.0
sg7
S'2014-12-17 16:16:43.919835'
p67
sg9
g64
sg10
F2162152.0
sg11
F1.0
sg12
S'192.168.1.13'
p68
sg14
F1.0
sg15
F2102152.0
sbssVnode2
p69
(dp70
S'VM_Task_21'
p71
(iGuest
Guest
p72
(dp73
g6
F8.0
sg7
S'2014-12-17 16:22:55.290994'
p74
sg9
g71
sg10
F2162152.0
sg11
F1.0
sg12
S'192.168.1.12'
p75
sg14
F1.0
sg15
F2102152.0
sbsS'VM_Task_22'
p76
(iGuest
Guest
p77
(dp78
g6
F8.0
sg7
S'2014-12-17 16:25:21.317550'
p79
sg9
S'VM_Task_22'
p80
sg10
F2162152.0
sg11
F1.0
sg12
S'192.168.1.61'
p81
sg14
F2.0
sg15
F2145348.0
sbsS'VM_Task_23'
p82
(iGuest
Guest
p83
(dp84
g6
F8.0
sg7
S'2014-12-17 16:27:47.610328'
p85
sg9
S'VM_Task_23'
p86
sg10
F2162152.0
sg11
F1.0
sg12
S'192.168.1.63'
p87
sg14
F2.0
sg15
F2145348.0
sbsS'VM_Task_24'
p88
(iGuest
Guest
p89
(dp90
g6
F8.0
sg7
S'2014-12-17 16:30:58.400614'
p91
sg9
g88
sg10
F2162152.0
sg11
F1.0
sg12
S'192.168.1.12'
p92
sg14
F1.0
sg15
F2102152.0
sbsS'VM_Task_25'
p93
(iGuest
Guest
p94
(dp95
g6
F8.0
sg7
S'2014-12-17 16:34:17.861720'
p96
sg9
g93
sg10
F2162152.0
sg11
F1.0
sg12
S'192.168.1.12'
p97
sg14
F1.0
sg15
F2102152.0
sbssVnode4
p98
(dp99
S'VM_Task_31'
p100
(iGuest
Guest
p101
(dp102
g6
F8.0
sg7
S'2014-12-17 17:00:15.575816'
p103
sg9
g100
sg10
F2162152.0
sg11
F1.0
sg12
S'192.168.1.14'
p104
sg14
F1.0
sg15
F2102152.0
sbsS'VM_Task_3'
p105
(iGuest
Guest
p106
(dp107
g6
F8.0
sg7
S'2014-12-17 16:52:49.954347'
p108
sg9
g105
sg10
F2162152.0
sg11
F1.0
sg12
S'192.168.1.14'
p109
sg14
F1.0
sg15
F2102152.0
sbsS'VM_Task_27'
p110
(iGuest
Guest
p111
(dp112
g6
F8.0
sg7
S'2014-12-17 16:41:12.833740'
p113
sg9
S'VM_Task_27'
p114
sg10
F2162152.0
sg11
F1.0
sg12
S'192.168.1.254'
p115
sg14
F1.0
sg15
F2145348.0
sbsS'VM_Task_26'
p116
(iGuest
Guest
p117
(dp118
g6
F8.0
sg7
S'2014-12-17 16:37:24.673901'
p119
sg9
g116
sg10
F2162152.0
sg11
F1.0
sg12
S'192.168.1.14'
p120
sg14
F1.0
sg15
F2102152.0
sbsS'VM_Task_30'
p121
(iGuest
Guest
p122
(dp123
g6
F8.0
sg7
S'2014-12-17 16:56:32.816914'
p124
sg9
g121
sg10
F2162152.0
sg11
F1.0
sg12
S'192.168.1.14'
p125
sg14
F1.0
sg15
F2102152.0
sbsS'VM_Task_28'
p126
(iGuest
Guest
p127
(dp128
g6
F8.0
sg7
S'2014-12-17 16:45:23.151036'
p129
sg9
g126
sg10
F2162152.0
sg11
F1.0
sg12
S'192.168.1.14'
p130
sg14
F1.0
sg15
F2102152.0
sbsS'VM_Task_29'
p131
(iGuest
Guest
p132
(dp133
g6
F8.0
sg7
S'2014-12-17 16:49:08.892728'
p134
sg9
g131
sg10
F2162152.0
sg11
F1.0
sg12
S'192.168.1.14'
p135
sg14
F1.0
sg15
F2102152.0
sbss.