(dp0
Vnode1
p1
(dp2
S'VM_Task_15'
p3
(iGuest
Guest
p4
(dp5
S'max_cpu'
p6
F1.0
sS'start_time'
p7
F1415671456.429239
sS'vmid'
p8
g3
sS'max_memory'
p9
F2157152.0
sS'io'
p10
F1.0
sS'vmip'
p11
S'192.168.1.22'
p12
sS'current_cpu'
p13
F1.0
sS'current_memory'
p14
F2102152.0
sbsS'VM_Task_14'
p15
(iGuest
Guest
p16
(dp17
g6
F1.0
sg7
F1415671358.153172
sg8
g15
sg9
F2157152.0
sg10
F1.0
sg11
S'192.168.1.21'
p18
sg13
F1.0
sg14
F2102152.0
sbsS'VM_Task_11'
p19
(iGuest
Guest
p20
(dp21
g6
F1.0
sg7
F1415671104.888973
sg8
g19
sg9
F2157152.0
sg10
F1.0
sg11
S'192.168.1.18'
p22
sg13
F1.0
sg14
F2102152.0
sbsS'VM_Task_10'
p23
(iGuest
Guest
p24
(dp25
g6
F1.0
sg7
F1415671022.075172
sg8
g23
sg9
F2157152.0
sg10
F1.0
sg11
S'192.168.1.17'
p26
sg13
F1.0
sg14
F2102152.0
sbsS'VM_Task_13'
p27
(iGuest
Guest
p28
(dp29
g6
F1.0
sg7
F1415671272.480194
sg8
g27
sg9
F2157152.0
sg10
F1.0
sg11
S'192.168.1.20'
p30
sg13
F1.0
sg14
F2102152.0
sbsS'VM_Task_12'
p31
(iGuest
Guest
p32
(dp33
g6
F1.0
sg7
F1415671190.094111
sg8
g31
sg9
F2157152.0
sg10
F1.0
sg11
S'192.168.1.19'
p34
sg13
F1.0
sg14
F2102152.0
sbssVnode3
p35
(dp36
S'VM_Task_2'
p37
(iGuest
Guest
p38
(dp39
g6
F1.0
sg7
F1415672247.592255
sg8
g37
sg9
F2157152.0
sg10
F1.0
sg11
S'192.168.1.5'
p40
sg13
F1.0
sg14
F2102152.0
sbsS'VM_Task_20'
p41
(iGuest
Guest
p42
(dp43
g6
F1.0
sg7
F1415672413.44706
sg8
g41
sg9
F2157152.0
sg10
F1.0
sg11
S'192.168.1.6'
p44
sg13
F1.0
sg14
F2102152.0
sbsS'VM_Task_21'
p45
(iGuest
Guest
p46
(dp47
g6
F1.0
sg7
F1415672563.49736
sg8
g45
sg9
F2157152.0
sg10
F1.0
sg11
S'192.168.1.25'
p48
sg13
F1.0
sg14
F2102152.0
sbsS'VM_Task_19'
p49
(iGuest
Guest
p50
(dp51
g6
F1.0
sg7
F1415672097.351452
sg8
g49
sg9
F2157152.0
sg10
F1.0
sg11
S'192.168.1.3'
p52
sg13
F1.0
sg14
F2102152.0
sbsS'VM_Task_18'
p53
(iGuest
Guest
p54
(dp55
g6
F1.0
sg7
F1415671947.339574
sg8
g53
sg9
F2157152.0
sg10
F1.0
sg11
S'192.168.1.2'
p56
sg13
F1.0
sg14
F2102152.0
sbsS'VM_Task_17'
p57
(iGuest
Guest
p58
(dp59
g6
F1.0
sg7
F1415671781.769428
sg8
g57
sg9
F2157152.0
sg10
F1.0
sg11
S'192.168.1.24'
p60
sg13
F1.0
sg14
F2102152.0
sbsS'VM_Task_16'
p61
(iGuest
Guest
p62
(dp63
g6
F1.0
sg7
F1415671616.818167
sg8
g61
sg9
F2157152.0
sg10
F1.0
sg11
S'192.168.1.23'
p64
sg13
F1.0
sg14
F2102152.0
sbssVnode2
p65
(dp66
S'VM_Task_22'
p67
(iGuest
Guest
p68
(dp69
g6
F1.0
sg7
F1415672729.795705
sg8
g67
sg9
F2157152.0
sg10
F1.0
sg11
S'192.168.1.26'
p70
sg13
F1.0
sg14
F2102152.0
sbsS'VM_Task_23'
p71
(iGuest
Guest
p72
(dp73
g6
F1.0
sg7
F1415672896.124606
sg8
g71
sg9
F2157152.0
sg10
F1.0
sg11
S'192.168.1.27'
p74
sg13
F1.0
sg14
F2102152.0
sbsS'VM_Task_24'
p75
(iGuest
Guest
p76
(dp77
g6
F1.0
sg7
F1415673061.491896
sg8
g75
sg9
F2157152.0
sg10
F1.0
sg11
S'192.168.1.7'
p78
sg13
F1.0
sg14
F2102152.0
sbsS'VM_Task_25'
p79
(iGuest
Guest
p80
(dp81
g6
F1.0
sg7
F1415673213.307698
sg8
g79
sg9
F2157152.0
sg10
F1.0
sg11
S'192.168.1.8'
p82
sg13
F1.0
sg14
F2102152.0
sbsS'VM_Task_26'
p83
(iGuest
Guest
p84
(dp85
g6
F1.0
sg7
F1415673363.840114
sg8
g83
sg9
F2157152.0
sg10
F1.0
sg11
S'192.168.1.9'
p86
sg13
F1.0
sg14
F2102152.0
sbsS'VM_Task_27'
p87
(iGuest
Guest
p88
(dp89
g6
F1.0
sg7
F1415673514.374394
sg8
g87
sg9
F2157152.0
sg10
F1.0
sg11
S'192.168.1.10'
p90
sg13
F1.0
sg14
F2102152.0
sbsS'VM_Task_28'
p91
(iGuest
Guest
p92
(dp93
g6
F1.0
sg7
F1415673664.919567
sg8
g91
sg9
F2157152.0
sg10
F1.0
sg11
S'192.168.1.15'
p94
sg13
F1.0
sg14
F2102152.0
sbssVnode4
p95
(dp96
S'VM_Task_3'
p97
(iGuest
Guest
p98
(dp99
g6
F1.0
sg7
F1415673964.388538
sg8
g97
sg9
F2157152.0
sg10
F1.0
sg11
S'192.168.1.28'
p100
sg13
F1.0
sg14
F2102152.0
sbsS'VM_Task_35'
p101
(iGuest
Guest
p102
(dp103
g6
F1.0
sg7
F1415740341.77282
sg8
g101
sg9
F2157152.0
sg10
F1.0
sg11
S'192.168.1.35'
p104
sg13
F1.0
sg14
F2102152.0
sbsS'VM_Task_34'
p105
(iGuest
Guest
p106
(dp107
g6
F1.0
sg7
F1415674756.026547
sg8
g105
sg9
F2157152.0
sg10
F1.0
sg11
S'192.168.1.37'
p108
sg13
F1.0
sg14
F2102152.0
sbsS'VM_Task_33'
p109
(iGuest
Guest
p110
(dp111
g6
F1.0
sg7
F1415674590.825967
sg8
g109
sg9
F2157152.0
sg10
F1.0
sg11
S'192.168.1.36'
p112
sg13
F1.0
sg14
F2102152.0
sbsS'VM_Task_32'
p113
(iGuest
Guest
p114
(dp115
g6
F1.0
sg7
F1415674425.764519
sg8
g113
sg9
F2157152.0
sg10
F1.0
sg11
S'192.168.1.35'
p116
sg13
F1.0
sg14
F2102152.0
sbsS'VM_Task_31'
p117
(iGuest
Guest
p118
(dp119
g6
F1.0
sg7
F1415674279.906909
sg8
g117
sg9
F2157152.0
sg10
F1.0
sg11
S'192.168.1.30'
p120
sg13
F1.0
sg14
F2102152.0
sbsS'VM_Task_30'
p121
(iGuest
Guest
p122
(dp123
g6
F1.0
sg7
F1415674114.97589
sg8
g121
sg9
F2157152.0
sg10
F1.0
sg11
S'192.168.1.29'
p124
sg13
F1.0
sg14
F2102152.0
sbss.