(dp0
Vnode1
p1
(dp2
S'VM_Task_1'
p3
(iGuest
Guest
p4
(dp5
S'max_cpu'
p6
F1.0
sS'start_time'
p7
F1416009411.801957
sS'vmid'
p8
g3
sS'max_memory'
p9
F2157152.0
sS'io'
p10
F1.0
sS'vmip'
p11
S'192.168.1.3'
p12
sS'current_cpu'
p13
F1.0
sS'current_memory'
p14
F2102152.0
sbsS'VM_Task_15'
p15
(iGuest
Guest
p16
(dp17
g6
F1.0
sg7
F1415671456.429239
sg8
g15
sg9
F2157152.0
sg10
F1.0
sg11
S'192.168.1.22'
p18
sg13
F1.0
sg14
F2102152.0
sbsS'VM_Task_14'
p19
(iGuest
Guest
p20
(dp21
g6
F1.0
sg7
F1415671358.153172
sg8
g19
sg9
F2157152.0
sg10
F1.0
sg11
S'192.168.1.21'
p22
sg13
F1.0
sg14
F2102152.0
sbsS'VM_Task_11'
p23
(iGuest
Guest
p24
(dp25
g6
F1.0
sg7
F1416009604.269452
sg8
S'VM_Task_11'
p26
sg9
F2157152.0
sg10
F1.0
sg11
S'192.168.1.5'
p27
sg13
F1.0
sg14
F2102152.0
sbsS'VM_Task_10'
p28
(iGuest
Guest
p29
(dp30
g6
F1.0
sg7
F1416009507.296716
sg8
S'VM_Task_10'
p31
sg9
F2157152.0
sg10
F1.0
sg11
S'192.168.1.4'
p32
sg13
F1.0
sg14
F2102152.0
sbsS'VM_Task_13'
p33
(iGuest
Guest
p34
(dp35
g6
F1.0
sg7
F1416009784.474348
sg8
S'VM_Task_13'
p36
sg9
F2157152.0
sg10
F1.0
sg11
S'192.168.1.7'
p37
sg13
F1.0
sg14
F2102152.0
sbsS'VM_Task_12'
p38
(iGuest
Guest
p39
(dp40
g6
F1.0
sg7
F1416009702.31084
sg8
S'VM_Task_12'
p41
sg9
F2157152.0
sg10
F1.0
sg11
S'192.168.1.6'
p42
sg13
F1.0
sg14
F2102152.0
sbssVnode3
p43
(dp44
S'VM_Task_2'
p45
(iGuest
Guest
p46
(dp47
g6
F1.0
sg7
F1415672247.592255
sg8
g45
sg9
F2157152.0
sg10
F1.0
sg11
S'192.168.1.5'
p48
sg13
F1.0
sg14
F2102152.0
sbsS'VM_Task_20'
p49
(iGuest
Guest
p50
(dp51
g6
F1.0
sg7
F1415672413.44706
sg8
g49
sg9
F2157152.0
sg10
F1.0
sg11
S'192.168.1.6'
p52
sg13
F1.0
sg14
F2102152.0
sbsS'VM_Task_21'
p53
(iGuest
Guest
p54
(dp55
g6
F1.0
sg7
F1415672563.49736
sg8
g53
sg9
F2157152.0
sg10
F1.0
sg11
S'192.168.1.25'
p56
sg13
F1.0
sg14
F2102152.0
sbsS'VM_Task_19'
p57
(iGuest
Guest
p58
(dp59
g6
F1.0
sg7
F1415672097.351452
sg8
g57
sg9
F2157152.0
sg10
F1.0
sg11
S'192.168.1.3'
p60
sg13
F1.0
sg14
F2102152.0
sbsS'VM_Task_18'
p61
(iGuest
Guest
p62
(dp63
g6
F1.0
sg7
F1415671947.339574
sg8
g61
sg9
F2157152.0
sg10
F1.0
sg11
S'192.168.1.2'
p64
sg13
F1.0
sg14
F2102152.0
sbsS'VM_Task_17'
p65
(iGuest
Guest
p66
(dp67
g6
F1.0
sg7
F1415671781.769428
sg8
g65
sg9
F2157152.0
sg10
F1.0
sg11
S'192.168.1.24'
p68
sg13
F1.0
sg14
F2102152.0
sbsS'VM_Task_16'
p69
(iGuest
Guest
p70
(dp71
g6
F1.0
sg7
F1415671616.818167
sg8
g69
sg9
F2157152.0
sg10
F1.0
sg11
S'192.168.1.23'
p72
sg13
F1.0
sg14
F2102152.0
sbssVnode2
p73
(dp74
S'VM_Task_22'
p75
(iGuest
Guest
p76
(dp77
g6
F1.0
sg7
F1415672729.795705
sg8
g75
sg9
F2157152.0
sg10
F1.0
sg11
S'192.168.1.26'
p78
sg13
F1.0
sg14
F2102152.0
sbsS'VM_Task_23'
p79
(iGuest
Guest
p80
(dp81
g6
F1.0
sg7
F1415672896.124606
sg8
g79
sg9
F2157152.0
sg10
F1.0
sg11
S'192.168.1.27'
p82
sg13
F1.0
sg14
F2102152.0
sbsS'VM_Task_24'
p83
(iGuest
Guest
p84
(dp85
g6
F1.0
sg7
F1415673061.491896
sg8
g83
sg9
F2157152.0
sg10
F1.0
sg11
S'192.168.1.7'
p86
sg13
F1.0
sg14
F2102152.0
sbsS'VM_Task_25'
p87
(iGuest
Guest
p88
(dp89
g6
F1.0
sg7
F1415673213.307698
sg8
g87
sg9
F2157152.0
sg10
F1.0
sg11
S'192.168.1.8'
p90
sg13
F1.0
sg14
F2102152.0
sbsS'VM_Task_26'
p91
(iGuest
Guest
p92
(dp93
g6
F1.0
sg7
F1415673363.840114
sg8
g91
sg9
F2157152.0
sg10
F1.0
sg11
S'192.168.1.9'
p94
sg13
F1.0
sg14
F2102152.0
sbsS'VM_Task_27'
p95
(iGuest
Guest
p96
(dp97
g6
F1.0
sg7
F1415673514.374394
sg8
g95
sg9
F2157152.0
sg10
F1.0
sg11
S'192.168.1.10'
p98
sg13
F1.0
sg14
F2102152.0
sbsS'VM_Task_28'
p99
(iGuest
Guest
p100
(dp101
g6
F1.0
sg7
F1415673664.919567
sg8
g99
sg9
F2157152.0
sg10
F1.0
sg11
S'192.168.1.15'
p102
sg13
F1.0
sg14
F2102152.0
sbssVnode4
p103
(dp104
S'VM_Task_3'
p105
(iGuest
Guest
p106
(dp107
g6
F1.0
sg7
F1415673964.388538
sg8
g105
sg9
F2157152.0
sg10
F1.0
sg11
S'192.168.1.28'
p108
sg13
F1.0
sg14
F2102152.0
sbsS'VM_Task_35'
p109
(iGuest
Guest
p110
(dp111
g6
F1.0
sg7
F1415740341.77282
sg8
g109
sg9
F2157152.0
sg10
F1.0
sg11
S'192.168.1.35'
p112
sg13
F1.0
sg14
F2102152.0
sbsS'VM_Task_34'
p113
(iGuest
Guest
p114
(dp115
g6
F1.0
sg7
F1415674756.026547
sg8
g113
sg9
F2157152.0
sg10
F1.0
sg11
S'192.168.1.37'
p116
sg13
F1.0
sg14
F2102152.0
sbsS'VM_Task_33'
p117
(iGuest
Guest
p118
(dp119
g6
F1.0
sg7
F1415674590.825967
sg8
g117
sg9
F2157152.0
sg10
F1.0
sg11
S'192.168.1.36'
p120
sg13
F1.0
sg14
F2102152.0
sbsS'VM_Task_32'
p121
(iGuest
Guest
p122
(dp123
g6
F1.0
sg7
F1415674425.764519
sg8
g121
sg9
F2157152.0
sg10
F1.0
sg11
S'192.168.1.35'
p124
sg13
F1.0
sg14
F2102152.0
sbsS'VM_Task_31'
p125
(iGuest
Guest
p126
(dp127
g6
F1.0
sg7
F1415674279.906909
sg8
g125
sg9
F2157152.0
sg10
F1.0
sg11
S'192.168.1.30'
p128
sg13
F1.0
sg14
F2102152.0
sbsS'VM_Task_30'
p129
(iGuest
Guest
p130
(dp131
g6
F1.0
sg7
F1415674114.97589
sg8
g129
sg9
F2157152.0
sg10
F1.0
sg11
S'192.168.1.29'
p132
sg13
F1.0
sg14
F2102152.0
sbss.