(dp0
Vnode1
p1
(dp2
S'DineshTest'
p3
(iGuest
Guest
p4
(dp5
S'max_cpu'
p6
F1.0
sS'start_time'
p7
F1415494417.03181
sS'vmid'
p8
g3
sS'max_memory'
p9
F4194304.0
sS'io'
p10
F1.0
sS'vmip'
p11
S'192.168.1.4'
p12
sS'current_cpu'
p13
F1.0
sS'current_memory'
p14
F4194304.0
sbssVnode3
p15
(dp16
sVnode2
p17
(dp18
sVnode4
p19
(dp20
s.