(dp0
Vnode1
p1
(dp2
S'VM_Task_20'
p3
(iGuest
Guest
p4
(dp5
S'max_cpu'
p6
F8.0
sS'start_time'
p7
S'2014-12-17 00:36:50.508408'
p8
sS'vmid'
p9
g3
sS'max_memory'
p10
F2162152.0
sS'io'
p11
F1.0
sS'vmip'
p12
S'192.168.1.49'
p13
sS'current_cpu'
p14
F1.0
sS'current_memory'
p15
F2102152.0
sbsS'VM_Task_21'
p16
(iGuest
Guest
p17
(dp18
g6
F8.0
sg7
S'2014-12-17 00:40:43.146433'
p19
sg9
S'VM_Task_21'
p20
sg10
F2162152.0
sg11
F1.0
sg12
S'192.168.1.50'
p21
sg14
F1.0
sg15
F2145348.0
sbsS'VM_Task_22'
p22
(iGuest
Guest
p23
(dp24
g6
F8.0
sg7
S'2014-12-17 00:42:21.187360'
p25
sg9
g22
sg10
F2162152.0
sg11
F1.0
sg12
S'192.168.1.51'
p26
sg14
F1.0
sg15
F2102152.0
sbsS'VM_Task_23'
p27
(iGuest
Guest
p28
(dp29
g6
F8.0
sg7
S'2014-12-17 00:45:58.273948'
p30
sg9
g27
sg10
F2162152.0
sg11
F1.0
sg12
S'192.168.1.52'
p31
sg14
F1.0
sg15
F2102152.0
sbsS'VM_Task_14'
p32
(iGuest
Guest
p33
(dp34
g6
F8.0
sg7
S'2014-12-17 00:17:38.939150'
p35
sg9
S'VM_Task_14'
p36
sg10
F2162152.0
sg11
F1.0
sg12
S'192.168.1.41'
p37
sg14
F1.0
sg15
F2145348.0
sbsS'VM_Task_13'
p38
(iGuest
Guest
p39
(dp40
g6
F8.0
sg7
S'2014-12-17 00:14:04.507008'
p41
sg9
g38
sg10
F2162152.0
sg11
F1.0
sg12
S'192.168.1.40'
p42
sg14
F1.0
sg15
F2102152.0
sbssVnode3
p43
(dp44
S'VM_Task_2'
p45
(iGuest
Guest
p46
(dp47
g6
F8.0
sg7
S'2014-12-17 00:35:17.834428'
p48
sg9
g45
sg10
F2162152.0
sg11
F1.0
sg12
S'192.168.1.13'
p49
sg14
F1.0
sg15
F2102152.0
sbsS'VM_Task_19'
p50
(iGuest
Guest
p51
(dp52
g6
F8.0
sg7
S'2014-12-17 00:30:21.578076'
p53
sg9
g50
sg10
F2162152.0
sg11
F1.0
sg12
S'192.168.1.13'
p54
sg14
F1.0
sg15
F2102152.0
sbsS'VM_Task_18'
p55
(iGuest
Guest
p56
(dp57
g6
F8.0
sg7
S'2014-12-17 00:26:26.714136'
p58
sg9
S'VM_Task_18'
p59
sg10
F2162152.0
sg11
F1.0
sg12
S'192.168.1.46'
p60
sg14
F1.0
sg15
F2145348.0
sbsS'VM_Task_15'
p61
(iGuest
Guest
p62
(dp63
g6
F8.0
sg7
S'2014-12-17 00:19:16.799360'
p64
sg9
S'VM_Task_15'
p65
sg10
F2162152.0
sg11
F1.0
sg12
S'192.168.1.42'
p66
sg14
F1.0
sg15
F2145348.0
sbsS'VM_Task_17'
p67
(iGuest
Guest
p68
(dp69
g6
F8.0
sg7
S'2014-12-17 00:23:28.183302'
p70
sg9
S'VM_Task_17'
p71
sg10
F2162152.0
sg11
F1.0
sg12
S'192.168.1.44'
p72
sg14
F2.0
sg15
F2145348.0
sbsS'VM_Task_16'
p73
(iGuest
Guest
p74
(dp75
g6
F8.0
sg7
S'2014-12-17 00:21:57.780613'
p76
sg9
S'VM_Task_16'
p77
sg10
F2162152.0
sg11
F1.0
sg12
S'192.168.1.43'
p78
sg14
F1.0
sg15
F2145348.0
sbssVnode2
p79
(dp80
S'VM_Task_24'
p81
(iGuest
Guest
p82
(dp83
g6
F8.0
sg7
S'2014-12-17 00:49:34.396021'
p84
sg9
S'VM_Task_24'
p85
sg10
F2162152.0
sg11
F1.0
sg12
S'192.168.1.53'
p86
sg14
F1.0
sg15
F2145348.0
sbsS'VM_Task_25'
p87
(iGuest
Guest
p88
(dp89
g6
F8.0
sg7
S'2014-12-17 00:53:47.809066'
p90
sg9
g87
sg10
F2162152.0
sg11
F1.0
sg12
S'192.168.1.12'
p91
sg14
F1.0
sg15
F2102152.0
sbssVnode4
p92
(dp93
S'VM_Task_11'
p94
(iGuest
Guest
p95
(dp96
g6
F8.0
sg7
S'2014-12-17 00:11:00.817094'
p97
sg9
S'VM_Task_11'
p98
sg10
F2162152.0
sg11
F1.0
sg12
S'192.168.1.38'
p99
sg14
F3.0
sg15
F2145348.0
sbsS'VM_Task_12'
p100
(iGuest
Guest
p101
(dp102
g6
F8.0
sg7
S'2014-12-17 00:12:24.695758'
p103
sg9
S'VM_Task_12'
p104
sg10
F2162152.0
sg11
F1.0
sg12
S'192.168.1.39'
p105
sg14
F2.0
sg15
F2145348.0
sbss.