(dp0
Vnode1
p1
(dp2
S'VM_Task_100'
p3
(iGuest
Guest
p4
(dp5
S'max_cpu'
p6
F1.0
sS'start_time'
p7
S'2014-11-30 20:17:45.291684'
p8
sS'vmid'
p9
g3
sS'max_memory'
p10
F2162152.0
sS'io'
p11
F1.0
sS'vmip'
p12
S'192.168.1.76'
p13
sS'current_cpu'
p14
F1.0
sS'current_memory'
p15
F2102152.0
sbsS'VM_Task_15'
p16
(iGuest
Guest
p17
(dp18
g6
F1.0
sg7
S'2014-11-30 20:25:29.325216'
p19
sg9
g16
sg10
F2162152.0
sg11
F1.0
sg12
S'192.168.1.81'
p20
sg14
F1.0
sg15
F2102152.0
sbsS'VM_Task_14'
p21
(iGuest
Guest
p22
(dp23
g6
F1.0
sg7
S'2014-11-30 20:23:49.017677'
p24
sg9
g21
sg10
F2162152.0
sg11
F1.0
sg12
S'192.168.1.80'
p25
sg14
F1.0
sg15
F2102152.0
sbsS'VM_Task_16'
p26
(iGuest
Guest
p27
(dp28
g6
F1.0
sg7
S'2014-11-30 20:27:15.626436'
p29
sg9
g26
sg10
F2162152.0
sg11
F1.0
sg12
S'192.168.1.82'
p30
sg14
F1.0
sg15
F2102152.0
sbsS'VM_Task_11'
p31
(iGuest
Guest
p32
(dp33
g6
F1.0
sg7
S'2014-11-30 20:19:13.004396'
p34
sg9
g31
sg10
F2162152.0
sg11
F1.0
sg12
S'192.168.1.77'
p35
sg14
F1.0
sg15
F2102152.0
sbsS'VM_Task_13'
p36
(iGuest
Guest
p37
(dp38
g6
F1.0
sg7
S'2014-11-30 20:22:07.758710'
p39
sg9
g36
sg10
F2162152.0
sg11
F1.0
sg12
S'192.168.1.79'
p40
sg14
F1.0
sg15
F2102152.0
sbsS'VM_Task_12'
p41
(iGuest
Guest
p42
(dp43
g6
F1.0
sg7
S'2014-11-30 20:20:37.862437'
p44
sg9
g41
sg10
F2162152.0
sg11
F1.0
sg12
S'192.168.1.78'
p45
sg14
F1.0
sg15
F2102152.0
sbssVnode3
p46
(dp47
S'VM_Task_17'
p48
(iGuest
Guest
p49
(dp50
g6
F1.0
sg7
S'2014-11-30 20:29:45.439932'
p51
sg9
g48
sg10
F2162152.0
sg11
F1.0
sg12
S'192.168.1.83'
p52
sg14
F1.0
sg15
F2102152.0
sbsS'VM_Task_18'
p53
(iGuest
Guest
p54
(dp55
g6
F1.0
sg7
S'2014-11-30 20:32:26.607496'
p56
sg9
g53
sg10
F2162152.0
sg11
F1.0
sg12
S'192.168.1.84'
p57
sg14
F1.0
sg15
F2102152.0
sbssVnode2
p58
(dp59
sVnode4
p60
(dp61
s.