(dp0
Vnode1
p1
(dp2
S'VM_Task_1'
p3
(iGuest
Guest
p4
(dp5
S'max_cpu'
p6
F1.0
sS'start_time'
p7
F1416609626.288851
sS'vmid'
p8
g3
sS'max_memory'
p9
F2157152.0
sS'io'
p10
F1.0
sS'vmip'
p11
S'192.168.1.7'
p12
sS'current_cpu'
p13
F1.0
sS'current_memory'
p14
F2102152.0
sbsS'VM_Task_10'
p15
(iGuest
Guest
p16
(dp17
g6
F1.0
sg7
F1416609721.750609
sg8
g15
sg9
F2157152.0
sg10
F1.0
sg11
S'192.168.1.8'
p18
sg13
F1.0
sg14
F2102152.0
sbssVnode3
p19
(dp20
sVnode2
p21
(dp22
sVnode4
p23
(dp24
s.