(dp0
Vnode1
p1
(dp2
S'VM_Task_100_bak'
p3
(iGuest
Guest
p4
(dp5
S'max_cpu'
p6
F8.0
sS'start_time'
p7
S'2014-12-17 11:15:17.687338'
p8
sS'vmid'
p9
g3
sS'max_memory'
p10
F2157152.0
sS'io'
p11
F1.0
sS'vmip'
p12
S'192.168.1.11'
p13
sS'current_cpu'
p14
F1.0
sS'current_memory'
p15
F2102152.0
sbsS'VM_Task_96'
p16
(iGuest
Guest
p17
(dp18
g6
F8.0
sg7
S'2014-12-17 11:02:22.112991'
p19
sg9
g16
sg10
F2162152.0
sg11
F1.0
sg12
S'192.168.1.11'
p20
sg14
F1.0
sg15
F2102152.0
sbsS'VM_Task_1'
p21
(iGuest
Guest
p22
(dp23
g6
F8.0
sg7
S'2014-12-17 11:17:13.815528'
p24
sg9
S'VM_Task_1'
p25
sg10
F2162152.0
sg11
F1.0
sg12
S'192.168.1.204'
p26
sg14
F1.0
sg15
F2145348.0
sbsS'VM_Task_10'
p27
(iGuest
Guest
p28
(dp29
g6
F8.0
sg7
S'2014-12-17 11:19:02.905193'
p30
sg9
S'VM_Task_10'
p31
sg10
F2162152.0
sg11
F1.0
sg12
S'192.168.1.205'
p32
sg14
F1.0
sg15
F2145348.0
sbsS'VM_Task_94'
p33
(iGuest
Guest
p34
(dp35
g6
F8.0
sg7
S'2014-12-17 10:49:09.434647'
p36
sg9
S'VM_Task_94'
p37
sg10
F2162152.0
sg11
F1.0
sg12
S'192.168.1.197'
p38
sg14
F1.0
sg15
F2145348.0
sbssVnode3
p39
(dp40
S'VM_Task_97'
p41
(iGuest
Guest
p42
(dp43
g6
F8.0
sg7
S'2014-12-17 11:05:23.567997'
p44
sg9
S'VM_Task_97'
p45
sg10
F2162152.0
sg11
F1.0
sg12
S'192.168.1.200'
p46
sg14
F1.0
sg15
F2145348.0
sbsS'VM_Task_99'
p47
(iGuest
Guest
p48
(dp49
g6
F8.0
sg7
S'2014-12-17 11:12:37.401702'
p50
sg9
g47
sg10
F2162152.0
sg11
F1.0
sg12
S'192.168.1.13'
p51
sg14
F1.0
sg15
F2102152.0
sbsS'VM_Task_98'
p52
(iGuest
Guest
p53
(dp54
g6
F8.0
sg7
S'2014-12-17 11:08:23.306026'
p55
sg9
S'VM_Task_98'
p56
sg10
F2162152.0
sg11
F1.0
sg12
S'192.168.1.201'
p57
sg14
F1.0
sg15
F2145348.0
sbssVnode2
p58
(dp59
S'VM_Task_100'
p60
(iGuest
Guest
p61
(dp62
g6
F8.0
sg7
S'2014-12-17 11:42:27.477108'
p63
sg9
S'VM_Task_100'
p64
sg10
F2162152.0
sg11
F1.0
sg12
S'192.168.1.206'
p65
sg14
F5.0
sg15
F2145348.0
sbssVnode4
p66
(dp67
S'VM_Task_95'
p68
(iGuest
Guest
p69
(dp70
g6
F8.0
sg7
S'2014-12-17 10:59:47.001393'
p71
sg9
g68
sg10
F2162152.0
sg11
F1.0
sg12
S'192.168.1.14'
p72
sg14
F1.0
sg15
F2102152.0
sbss.