(dp0
Vnode1
p1
(dp2
S'VM_Task_23'
p3
(iGuest
Guest
p4
(dp5
S'max_cpu'
p6
F8.0
sS'start_time'
p7
S'2014-12-17 00:45:58.273948'
p8
sS'vmid'
p9
g3
sS'max_memory'
p10
F2162152.0
sS'io'
p11
F1.0
sS'vmip'
p12
S'192.168.1.52'
p13
sS'current_cpu'
p14
F1.0
sS'current_memory'
p15
F2102152.0
sbsS'VM_Task_32'
p16
(iGuest
Guest
p17
(dp18
g6
F8.0
sg7
S'2014-12-17 02:53:10.939660'
p19
sg9
S'VM_Task_32'
p20
sg10
F2162152.0
sg11
F1.0
sg12
S'192.168.1.56'
p21
sg14
F1.0
sg15
F2145348.0
sbsS'VM_Task_31'
p22
(iGuest
Guest
p23
(dp24
g6
F8.0
sg7
S'2014-12-17 01:17:23.397213'
p25
sg9
S'VM_Task_31'
p26
sg10
F2162152.0
sg11
F1.0
sg12
S'192.168.1.129'
p27
sg14
F1.0
sg15
F2145348.0
sbsS'VM_Task_34'
p28
(iGuest
Guest
p29
(dp30
g6
F8.0
sg7
S'2014-12-17 02:59:38.698120'
p31
sg9
g28
sg10
F2162152.0
sg11
F1.0
sg12
S'192.168.1.58'
p32
sg14
F1.0
sg15
F2102152.0
sbsS'VM_Task_39'
p33
(iGuest
Guest
p34
(dp35
g6
F8.0
sg7
S'2014-12-17 03:16:38.597637'
p36
sg9
S'VM_Task_39'
p37
sg10
F2162152.0
sg11
F1.0
sg12
S'192.168.1.133'
p38
sg14
F2.0
sg15
F2145348.0
sbssVnode3
p39
(dp40
S'VM_Task_37'
p41
(iGuest
Guest
p42
(dp43
g6
F8.0
sg7
S'2014-12-17 03:10:56.987635'
p44
sg9
g41
sg10
F2162152.0
sg11
F1.0
sg12
S'192.168.1.13'
p45
sg14
F1.0
sg15
F2102152.0
sbsS'VM_Task_36'
p46
(iGuest
Guest
p47
(dp48
g6
F8.0
sg7
S'2014-12-17 03:07:35.681747'
p49
sg9
S'VM_Task_36'
p50
sg10
F2162152.0
sg11
F1.0
sg12
S'192.168.1.130'
p51
sg14
F1.0
sg15
F2145348.0
sbsS'VM_Task_35'
p52
(iGuest
Guest
p53
(dp54
g6
F8.0
sg7
S'2014-12-17 03:04:34.696123'
p55
sg9
S'VM_Task_35'
p56
sg10
F2162152.0
sg11
F1.0
sg12
S'192.168.1.59'
p57
sg14
F1.0
sg15
F2145348.0
sbsS'VM_Task_38'
p58
(iGuest
Guest
p59
(dp60
g6
F8.0
sg7
S'2014-12-17 03:14:59.053168'
p61
sg9
g58
sg10
F2162152.0
sg11
F1.0
sg12
S'192.168.1.13'
p62
sg14
F1.0
sg15
F2102152.0
sbssVnode2
p63
(dp64
S'VM_Task_3'
p65
(iGuest
Guest
p66
(dp67
g6
F8.0
sg7
S'2014-12-17 01:09:01.789138'
p68
sg9
g65
sg10
F2162152.0
sg11
F1.0
sg12
S'192.168.1.12'
p69
sg14
F1.0
sg15
F2102152.0
sbsS'VM_Task_24'
p70
(iGuest
Guest
p71
(dp72
g6
F8.0
sg7
S'2014-12-17 00:49:34.396021'
p73
sg9
S'VM_Task_24'
p74
sg10
F2162152.0
sg11
F1.0
sg12
S'192.168.1.53'
p75
sg14
F1.0
sg15
F2145348.0
sbsS'VM_Task_25'
p76
(iGuest
Guest
p77
(dp78
g6
F8.0
sg7
S'2014-12-17 00:53:47.809066'
p79
sg9
g76
sg10
F2162152.0
sg11
F1.0
sg12
S'192.168.1.12'
p80
sg14
F1.0
sg15
F2102152.0
sbsS'VM_Task_26'
p81
(iGuest
Guest
p82
(dp83
g6
F8.0
sg7
S'2014-12-17 00:57:27.475494'
p84
sg9
g81
sg10
F2162152.0
sg11
F1.0
sg12
S'192.168.1.12'
p85
sg14
F1.0
sg15
F2102152.0
sbsS'VM_Task_27'
p86
(iGuest
Guest
p87
(dp88
g6
F8.0
sg7
S'2014-12-17 00:58:58.857718'
p89
sg9
S'VM_Task_27'
p90
sg10
F2162152.0
sg11
F1.0
sg12
S'192.168.1.124'
p91
sg14
F1.0
sg15
F2145348.0
sbsS'VM_Task_28'
p92
(iGuest
Guest
p93
(dp94
g6
F8.0
sg7
S'2014-12-17 01:03:01.676972'
p95
sg9
g92
sg10
F2162152.0
sg11
F1.0
sg12
S'192.168.1.12'
p96
sg14
F1.0
sg15
F2102152.0
sbsS'VM_Task_29'
p97
(iGuest
Guest
p98
(dp99
g6
F8.0
sg7
S'2014-12-17 01:04:33.608346'
p100
sg9
S'VM_Task_29'
p101
sg10
F2162152.0
sg11
F1.0
sg12
S'192.168.1.126'
p102
sg14
F1.0
sg15
F2145348.0
sbssVnode4
p103
(dp104
S'VM_Task_33'
p105
(iGuest
Guest
p106
(dp107
g6
F8.0
sg7
S'2014-12-17 02:57:58.466226'
p108
sg9
g105
sg10
F2162152.0
sg11
F1.0
sg12
S'192.168.1.14'
p109
sg14
F1.0
sg15
F2102152.0
sbsS'VM_Task_30'
p110
(iGuest
Guest
p111
(dp112
g6
F8.0
sg7
S'2014-12-17 01:10:34.155308'
p113
sg9
S'VM_Task_30'
p114
sg10
F2162152.0
sg11
F1.0
sg12
S'192.168.1.128'
p115
sg14
F1.0
sg15
F2145348.0
sbss.