(dp0
Vnode1
p1
(dp2
S'VM_Task_100'
p3
(iGuest
Guest
p4
(dp5
S'max_cpu'
p6
F1.0
sS'start_time'
p7
F1416618267.476293
sS'vmid'
p8
g3
sS'max_memory'
p9
F2207152.0
sS'io'
p10
F1.0
sS'vmip'
p11
S'192.168.1.37'
p12
sS'current_cpu'
p13
F1.0
sS'current_memory'
p14
F2102152.0
sbsS'VM_Task_15'
p15
(iGuest
Guest
p16
(dp17
g6
F1.0
sg7
F1416618746.616689
sg8
g15
sg9
F2207152.0
sg10
F1.0
sg11
S'192.168.1.42'
p18
sg13
F1.0
sg14
F2102152.0
sbsS'VM_Task_14'
p19
(iGuest
Guest
p20
(dp21
g6
F1.0
sg7
F1416618632.024156
sg8
g19
sg9
F2207152.0
sg10
F1.0
sg11
S'192.168.1.41'
p22
sg13
F1.0
sg14
F2102152.0
sbsS'VM_Task_11'
p23
(iGuest
Guest
p24
(dp25
g6
F1.0
sg7
F1416618349.307076
sg8
g23
sg9
F2207152.0
sg10
F1.0
sg11
S'192.168.1.38'
p26
sg13
F1.0
sg14
F2102152.0
sbsS'VM_Task_10'
p27
(iGuest
Guest
p28
(dp29
g6
F1.0
sg7
F1416618185.992606
sg8
g27
sg9
F2207152.0
sg10
F1.0
sg11
S'192.168.1.36'
p30
sg13
F1.0
sg14
F2102152.0
sbsS'VM_Task_13'
p31
(iGuest
Guest
p32
(dp33
g6
F1.0
sg7
F1416618522.993097
sg8
g31
sg9
F2207152.0
sg10
F1.0
sg11
S'192.168.1.40'
p34
sg13
F1.0
sg14
F2102152.0
sbsS'VM_Task_12'
p35
(iGuest
Guest
p36
(dp37
g6
F1.0
sg7
F1416618433.519388
sg8
g35
sg9
F2207152.0
sg10
F1.0
sg11
S'192.168.1.39'
p38
sg13
F1.0
sg14
F2102152.0
sbssVnode3
p39
(dp40
S'VM_Task_17'
p41
(iGuest
Guest
p42
(dp43
g6
F1.0
sg7
F1416619043.031473
sg8
g41
sg9
F2207152.0
sg10
F1.0
sg11
S'192.168.1.44'
p44
sg13
F1.0
sg14
F2102152.0
sbsS'VM_Task_16'
p45
(iGuest
Guest
p46
(dp47
g6
F1.0
sg7
F1416618894.51192
sg8
g45
sg9
F2207152.0
sg10
F1.0
sg11
S'192.168.1.43'
p48
sg13
F1.0
sg14
F2102152.0
sbsS'VM_Task_19'
p49
(iGuest
Guest
p50
(dp51
g6
F1.0
sg7
F1416619364.901724
sg8
g49
sg9
F2207152.0
sg10
F1.0
sg11
S'192.168.1.46'
p52
sg13
F1.0
sg14
F2102152.0
sbsS'VM_Task_18'
p53
(iGuest
Guest
p54
(dp55
g6
F1.0
sg7
F1416619204.532366
sg8
g53
sg9
F2207152.0
sg10
F1.0
sg11
S'192.168.1.45'
p56
sg13
F1.0
sg14
F2102152.0
sbssVnode2
p57
(dp58
sVnode4
p59
(dp60
s.