(dp0
Vnode1
p1
(dp2
S'VM_Task_1'
p3
(iGuest
Guest
p4
(dp5
S'max_cpu'
p6
F1.0
sS'start_time'
p7
F1415670938.245952
sS'vmid'
p8
g3
sS'max_memory'
p9
F2157152.0
sS'io'
p10
F1.0
sS'vmip'
p11
S'192.168.1.40'
p12
sS'current_cpu'
p13
F1.0
sS'current_memory'
p14
F2102152.0
sbsS'VM_Task_15'
p15
(iGuest
Guest
p16
(dp17
g6
F1.0
sg7
F1415671456.429239
sg8
g15
sg9
F2157152.0
sg10
F1.0
sg11
S'192.168.1.22'
p18
sg13
F1.0
sg14
F2102152.0
sbsS'VM_Task_14'
p19
(iGuest
Guest
p20
(dp21
g6
F1.0
sg7
F1415671358.153172
sg8
g19
sg9
F2157152.0
sg10
F1.0
sg11
S'192.168.1.21'
p22
sg13
F1.0
sg14
F2102152.0
sbsS'VM_Task_11'
p23
(iGuest
Guest
p24
(dp25
g6
F1.0
sg7
F1415671104.888973
sg8
g23
sg9
F2157152.0
sg10
F1.0
sg11
S'192.168.1.18'
p26
sg13
F1.0
sg14
F2102152.0
sbsS'VM_Task_10'
p27
(iGuest
Guest
p28
(dp29
g6
F1.0
sg7
F1415671022.075172
sg8
g27
sg9
F2157152.0
sg10
F1.0
sg11
S'192.168.1.17'
p30
sg13
F1.0
sg14
F2102152.0
sbsS'VM_Task_13'
p31
(iGuest
Guest
p32
(dp33
g6
F1.0
sg7
F1415671272.480194
sg8
g31
sg9
F2157152.0
sg10
F1.0
sg11
S'192.168.1.20'
p34
sg13
F1.0
sg14
F2102152.0
sbsS'VM_Task_12'
p35
(iGuest
Guest
p36
(dp37
g6
F1.0
sg7
F1415671190.094111
sg8
g35
sg9
F2157152.0
sg10
F1.0
sg11
S'192.168.1.19'
p38
sg13
F1.0
sg14
F2102152.0
sbssVnode3
p39
(dp40
S'VM_Task_17'
p41
(iGuest
Guest
p42
(dp43
g6
F1.0
sg7
F1415671781.769428
sg8
g41
sg9
F2157152.0
sg10
F1.0
sg11
S'192.168.1.24'
p44
sg13
F1.0
sg14
F2102152.0
sbsS'VM_Task_16'
p45
(iGuest
Guest
p46
(dp47
g6
F1.0
sg7
F1415671616.818167
sg8
g45
sg9
F2157152.0
sg10
F1.0
sg11
S'192.168.1.23'
p48
sg13
F1.0
sg14
F2102152.0
sbsS'VM_Task_18'
p49
(iGuest
Guest
p50
(dp51
g6
F1.0
sg7
F1415671947.339574
sg8
g49
sg9
F2157152.0
sg10
F1.0
sg11
S'192.168.1.2'
p52
sg13
F1.0
sg14
F2102152.0
sbssVnode2
p53
(dp54
sVnode4
p55
(dp56
s.