(dp0
Vnode1
p1
(dp2
S'VM_Task_13'
p3
(iGuest
Guest
p4
(dp5
S'max_cpu'
p6
F8.0
sS'start_time'
p7
S'2014-12-01 04:23:19.120069'
p8
sS'vmid'
p9
g3
sS'max_memory'
p10
F2162152.0
sS'io'
p11
F1.0
sS'vmip'
p12
S'192.168.1.194'
p13
sS'current_cpu'
p14
F1.0
sS'current_memory'
p15
F2102152.0
sbsS'VM_Task_15'
p16
(iGuest
Guest
p17
(dp18
g6
F8.0
sg7
S'2014-12-01 04:26:19.699361'
p19
sg9
g16
sg10
F2162152.0
sg11
F1.0
sg12
S'192.168.1.196'
p20
sg14
F1.0
sg15
F2102152.0
sbsS'VM_Task_14'
p21
(iGuest
Guest
p22
(dp23
g6
F8.0
sg7
S'2014-12-01 04:24:48.603809'
p24
sg9
g21
sg10
F2162152.0
sg11
F1.0
sg12
S'192.168.1.195'
p25
sg14
F1.0
sg15
F2102152.0
sbsS'VM_Task_17'
p26
(iGuest
Guest
p27
(dp28
g6
F8.0
sg7
S'2014-12-01 04:29:50.204750'
p29
sg9
g26
sg10
F2162152.0
sg11
F1.0
sg12
S'192.168.1.198'
p30
sg14
F1.0
sg15
F2102152.0
sbsS'VM_Task_16'
p31
(iGuest
Guest
p32
(dp33
g6
F8.0
sg7
S'2014-12-01 04:28:00.249113'
p34
sg9
g31
sg10
F2162152.0
sg11
F1.0
sg12
S'192.168.1.197'
p35
sg14
F1.0
sg15
F2102152.0
sbsS'VM_Task_11'
p36
(iGuest
Guest
p37
(dp38
g6
F8.0
sg7
S'2014-12-01 04:20:29.548256'
p39
sg9
S'VM_Task_11'
p40
sg10
F2162152.0
sg11
F1.0
sg12
S'192.168.1.192'
p41
sg14
F2.0
sg15
F2102152.0
sbsS'VM_Task_100'
p42
(iGuest
Guest
p43
(dp44
g6
F8.0
sg7
S'2014-12-01 04:19:03.826621'
p45
sg9
S'VM_Task_100'
p46
sg10
F2162152.0
sg11
F1.0
sg12
S'192.168.1.191'
p47
sg14
F4.0
sg15
F2102152.0
sbsS'VM_Task_12'
p48
(iGuest
Guest
p49
(dp50
g6
F8.0
sg7
S'2014-12-01 04:21:55.592345'
p51
sg9
S'VM_Task_12'
p52
sg10
F2162152.0
sg11
F1.0
sg12
S'192.168.1.193'
p53
sg14
F2.0
sg15
F2102152.0
sbssVnode3
p54
(dp55
sVnode2
p56
(dp57
sVnode4
p58
(dp59
s.