(dp0
Vnode1
p1
(dp2
S'VM_Task_100'
p3
(iGuest
Guest
p4
(dp5
S'max_cpu'
p6
F1.0
sS'start_time'
p7
S'2014-11-30 18:28:31.558964'
p8
sS'vmid'
p9
g3
sS'max_memory'
p10
F2162152.0
sS'io'
p11
F1.0
sS'vmip'
p12
S'192.168.1.28'
p13
sS'current_cpu'
p14
F1.0
sS'current_memory'
p15
F2102152.0
sbsS'VM_Task_15'
p16
(iGuest
Guest
p17
(dp18
g6
F1.0
sg7
S'2014-11-30 18:35:53.080256'
p19
sg9
g16
sg10
F2162152.0
sg11
F1.0
sg12
S'192.168.1.39'
p20
sg14
F1.0
sg15
F2102152.0
sbsS'VM_Task_14'
p21
(iGuest
Guest
p22
(dp23
g6
F1.0
sg7
S'2014-11-30 18:34:24.229838'
p24
sg9
g21
sg10
F2162152.0
sg11
F1.0
sg12
S'192.168.1.37'
p25
sg14
F1.0
sg15
F2102152.0
sbsS'VM_Task_16'
p26
(iGuest
Guest
p27
(dp28
g6
F1.0
sg7
S'2014-11-30 18:37:55.999724'
p29
sg9
g26
sg10
F2162152.0
sg11
F1.0
sg12
S'192.168.1.40'
p30
sg14
F1.0
sg15
F2102152.0
sbsS'VM_Task_11'
p31
(iGuest
Guest
p32
(dp33
g6
F1.0
sg7
S'2014-11-30 18:29:53.086381'
p34
sg9
g31
sg10
F2162152.0
sg11
F1.0
sg12
S'192.168.1.29'
p35
sg14
F1.0
sg15
F2102152.0
sbsS'VM_Task_13'
p36
(iGuest
Guest
p37
(dp38
g6
F1.0
sg7
S'2014-11-30 18:32:45.873984'
p39
sg9
g36
sg10
F2162152.0
sg11
F1.0
sg12
S'192.168.1.35'
p40
sg14
F1.0
sg15
F2102152.0
sbsS'VM_Task_12'
p41
(iGuest
Guest
p42
(dp43
g6
F1.0
sg7
S'2014-11-30 18:31:18.567080'
p44
sg9
g41
sg10
F2162152.0
sg11
F1.0
sg12
S'192.168.1.30'
p45
sg14
F1.0
sg15
F2102152.0
sbssVnode3
p46
(dp47
S'VM_Task_20'
p48
(iGuest
Guest
p49
(dp50
g6
F1.0
sg7
S'2014-11-30 18:55:17.186199'
p51
sg9
g48
sg10
F2162152.0
sg11
F1.0
sg12
S'192.168.1.62'
p52
sg14
F1.0
sg15
F2102152.0
sbsS'VM_Task_17'
p53
(iGuest
Guest
p54
(dp55
g6
F1.0
sg7
S'2014-11-30 18:40:36.441283'
p56
sg9
g53
sg10
F2162152.0
sg11
F1.0
sg12
S'192.168.1.41'
p57
sg14
F1.0
sg15
F2102152.0
sbsS'VM_Task_19'
p58
(iGuest
Guest
p59
(dp60
g6
F1.0
sg7
S'2014-11-30 18:45:52.023304'
p61
sg9
g58
sg10
F2162152.0
sg11
F1.0
sg12
S'192.168.1.53'
p62
sg14
F1.0
sg15
F2102152.0
sbsS'VM_Task_18'
p63
(iGuest
Guest
p64
(dp65
g6
F1.0
sg7
S'2014-11-30 18:43:16.496535'
p66
sg9
g63
sg10
F2162152.0
sg11
F1.0
sg12
S'192.168.1.42'
p67
sg14
F1.0
sg15
F2102152.0
sbsS'VM_Task_2'
p68
(iGuest
Guest
p69
(dp70
g6
F1.0
sg7
S'2014-11-30 18:50:39.564374'
p71
sg9
g68
sg10
F2162152.0
sg11
F1.0
sg12
S'192.168.1.60'
p72
sg14
F1.0
sg15
F2102152.0
sbssVnode2
p73
(dp74
sVnode4
p75
(dp76
s.