(dp0
Vnode1
p1
(dp2
S'VM_Task_14'
p3
(iGuest
Guest
p4
(dp5
S'max_cpu'
p6
F8.0
sS'start_time'
p7
S'2014-12-01 01:21:04.854087'
p8
sS'vmid'
p9
g3
sS'max_memory'
p10
F2162152.0
sS'io'
p11
F1.0
sS'vmip'
p12
S'192.168.1.158'
p13
sS'current_cpu'
p14
F1.0
sS'current_memory'
p15
F2102152.0
sbsS'VM_Task_11'
p16
(iGuest
Guest
p17
(dp18
g6
F8.0
sg7
S'2014-12-01 01:16:41.141170'
p19
sg9
g16
sg10
F2162152.0
sg11
F1.0
sg12
S'192.168.1.155'
p20
sg14
F1.0
sg15
F2102152.0
sbsS'VM_Task_100'
p21
(iGuest
Guest
p22
(dp23
g6
F8.0
sg7
S'2014-12-01 01:15:20.456013'
p24
sg9
S'VM_Task_100'
p25
sg10
F2162152.0
sg11
F1.0
sg12
S'192.168.1.154'
p26
sg14
S'2'
p27
sg15
S'2150000'
p28
sbsS'VM_Task_13'
p29
(iGuest
Guest
p30
(dp31
g6
F8.0
sg7
S'2014-12-01 01:19:31.016675'
p32
sg9
g29
sg10
F2162152.0
sg11
F1.0
sg12
S'192.168.1.157'
p33
sg14
F1.0
sg15
F2102152.0
sbsS'VM_Task_12'
p34
(iGuest
Guest
p35
(dp36
g6
F8.0
sg7
S'2014-12-01 01:18:03.571647'
p37
sg9
g34
sg10
F2162152.0
sg11
F1.0
sg12
S'192.168.1.156'
p38
sg14
F1.0
sg15
F2102152.0
sbssVnode3
p39
(dp40
sVnode2
p41
(dp42
sVnode4
p43
(dp44
s.