(dp0
Vnode1
p1
(dp2
S'VM_Task_11'
p3
(iGuest
Guest
p4
(dp5
S'max_cpu'
p6
F1.0
sS'start_time'
p7
S'2014-11-30 22:58:41.777470'
p8
sS'vmid'
p9
g3
sS'max_memory'
p10
F2162152.0
sS'io'
p11
F1.0
sS'vmip'
p12
S'192.168.1.117'
p13
sS'current_cpu'
p14
F1.0
sS'current_memory'
p15
F2102152.0
sbsS'VM_Task_13'
p16
(iGuest
Guest
p17
(dp18
g6
F1.0
sg7
S'2014-11-30 23:01:34.568066'
p19
sg9
g16
sg10
F2162152.0
sg11
F1.0
sg12
S'192.168.1.119'
p20
sg14
F1.0
sg15
F2102152.0
sbsS'VM_Task_100'
p21
(iGuest
Guest
p22
(dp23
g6
F1.0
sg7
S'2014-11-30 22:57:19.519768'
p24
sg9
S'VM_Task_100'
p25
sg10
F2162152.0
sg11
F1.0
sg12
S'192.168.1.116'
p26
sg14
F1.0
sg15
F2102152.0
sbsS'VM_Task_12'
p27
(iGuest
Guest
p28
(dp29
g6
F1.0
sg7
S'2014-11-30 23:00:06.736368'
p30
sg9
g27
sg10
F2162152.0
sg11
F1.0
sg12
S'192.168.1.118'
p31
sg14
F1.0
sg15
F2102152.0
sbssVnode3
p32
(dp33
sVnode2
p34
(dp35
sVnode4
p36
(dp37
s.