(dp0
Vnode1
p1
(dp2
S'VM_Task_100'
p3
(iGuest
Guest
p4
(dp5
S'max_cpu'
p6
F1.0
sS'start_time'
p7
F1417384659.07533
sS'vmid'
p8
g3
sS'max_memory'
p9
F2162152.0
sS'io'
p10
F1.0
sS'vmip'
p11
S'192.168.1.3'
p12
sS'current_cpu'
p13
F1.0
sS'current_memory'
p14
F2102152.0
sbsS'VM_Task_15'
p15
(iGuest
Guest
p16
(dp17
g6
F1.0
sg7
F1417385170.527368
sg8
g15
sg9
F2162152.0
sg10
F1.0
sg11
S'192.168.1.9'
p18
sg13
F1.0
sg14
F2102152.0
sbsS'VM_Task_14'
p19
(iGuest
Guest
p20
(dp21
g6
F1.0
sg7
F1417385067.102131
sg8
g19
sg9
F2162152.0
sg10
F1.0
sg11
S'192.168.1.8'
p22
sg13
F1.0
sg14
F2102152.0
sbsS'VM_Task_16'
p23
(iGuest
Guest
p24
(dp25
g6
F1.0
sg7
F1417385398.952223
sg8
g23
sg9
F2162152.0
sg10
F1.0
sg11
S'192.168.1.10'
p26
sg13
F1.0
sg14
F2102152.0
sbsS'VM_Task_11'
p27
(iGuest
Guest
p28
(dp29
g6
F1.0
sg7
F1417384756.130322
sg8
g27
sg9
F2162152.0
sg10
F1.0
sg11
S'192.168.1.4'
p30
sg13
F1.0
sg14
F2102152.0
sbsS'VM_Task_13'
p31
(iGuest
Guest
p32
(dp33
g6
F1.0
sg7
F1417384956.562421
sg8
g31
sg9
F2162152.0
sg10
F1.0
sg11
S'192.168.1.7'
p34
sg13
F1.0
sg14
F2102152.0
sbsS'VM_Task_12'
p35
(iGuest
Guest
p36
(dp37
g6
F1.0
sg7
F1417384854.79253
sg8
g35
sg9
F2162152.0
sg10
F1.0
sg11
S'192.168.1.6'
p38
sg13
F1.0
sg14
F2102152.0
sbssVnode3
p39
(dp40
S'VM_Task_17'
p41
(iGuest
Guest
p42
(dp43
g6
F1.0
sg7
F1417385679.889292
sg8
g41
sg9
F2162152.0
sg10
F1.0
sg11
S'192.168.1.15'
p44
sg13
F1.0
sg14
F2102152.0
sbsS'VM_Task_18'
p45
(iGuest
Guest
p46
(dp47
g6
F1.0
sg7
F1417385856.139744
sg8
g45
sg9
F2162152.0
sg10
F1.0
sg11
S'192.168.1.16'
p48
sg13
F1.0
sg14
F2102152.0
sbssVnode2
p49
(dp50
sVnode4
p51
(dp52
s.