(dp0
Vnode1
p1
(dp2
S'VM_Task_11'
p3
(iGuest
Guest
p4
(dp5
S'max_cpu'
p6
F1.0
sS'start_time'
p7
F1416972113.859775
sS'vmid'
p8
g3
sS'max_memory'
p9
F2162152.0
sS'io'
p10
F1.0
sS'vmip'
p11
S'192.168.1.22'
p12
sS'current_cpu'
p13
F1.0
sS'current_memory'
p14
F2102152.0
sbsS'VM_Task_100'
p15
(iGuest
Guest
p16
(dp17
g6
F1.0
sg7
F1416972028.676997
sg8
g15
sg9
F2162152.0
sg10
F1.0
sg11
S'192.168.1.21'
p18
sg13
F1.0
sg14
F2102152.0
sbsS'VM_Task_12'
p19
(iGuest
Guest
p20
(dp21
g6
F1.0
sg7
F1416972195.906928
sg8
g19
sg9
F2162152.0
sg10
F1.0
sg11
S'192.168.1.23'
p22
sg13
F1.0
sg14
F2102152.0
sbssVnode3
p23
(dp24
sVnode2
p25
(dp26
sVnode4
p27
(dp28
s.