(dp0
Vnode1
p1
(dp2
S'VM_Task_15'
p3
(iGuest
Guest
p4
(dp5
S'max_cpu'
p6
F8.0
sS'start_time'
p7
S'2014-12-01 21:07:51.364957'
p8
sS'vmid'
p9
S'VM_Task_15'
p10
sS'max_memory'
p11
F2162152.0
sS'io'
p12
F1.0
sS'vmip'
p13
S'192.168.1.48'
p14
sS'current_cpu'
p15
F1.0
sS'current_memory'
p16
F2102152.0
sbsS'VM_Task_14'
p17
(iGuest
Guest
p18
(dp19
g6
F8.0
sg7
S'2014-12-01 21:06:01.734115'
p20
sg9
S'VM_Task_14'
p21
sg11
F2162152.0
sg12
F1.0
sg13
S'192.168.1.42'
p22
sg15
F1.0
sg16
F2102152.0
sbsS'VM_Task_16'
p23
(iGuest
Guest
p24
(dp25
g6
F8.0
sg7
S'2014-12-01 21:09:22.963092'
p26
sg9
S'VM_Task_16'
p27
sg11
F2162152.0
sg12
F1.0
sg13
S'192.168.1.49'
p28
sg15
F1.0
sg16
F2102152.0
sbsS'VM_Task_11'
p29
(iGuest
Guest
p30
(dp31
g6
F8.0
sg7
S'2014-12-01 21:01:42.979091'
p32
sg9
g29
sg11
F2162152.0
sg12
F1.0
sg13
S'192.168.1.39'
p33
sg15
F1.0
sg16
F2102152.0
sbsS'VM_Task_100'
p34
(iGuest
Guest
p35
(dp36
g6
F8.0
sg7
S'2014-12-01 21:00:22.216724'
p37
sg9
S'VM_Task_100'
p38
sg11
F2162152.0
sg12
F1.0
sg13
S'192.168.1.37'
p39
sg15
F2.0
sg16
F2102152.0
sbsS'VM_Task_12'
p40
(iGuest
Guest
p41
(dp42
g6
F8.0
sg7
S'2014-12-01 21:03:05.371759'
p43
sg9
S'VM_Task_12'
p44
sg11
F2162152.0
sg12
F1.0
sg13
S'192.168.1.40'
p45
sg15
F1.0
sg16
F2102152.0
sbssVnode3
p46
(dp47
S'VM_Task_13'
p48
(iGuest
Guest
p49
(dp50
g6
F8.0
sg7
S'2014-12-01 21:04:35.294059'
p51
sg9
S'VM_Task_13'
p52
sg11
F2162152.0
sg12
F1.0
sg13
S'192.168.1.41'
p53
sg15
F1.0
sg16
F2102152.0
sbssVnode2
p54
(dp55
sVnode4
p56
(dp57
s.