(dp0
Vnode1
p1
(dp2
S'VM_Task_20'
p3
(iGuest
Guest
p4
(dp5
S'max_cpu'
p6
F8.0
sS'start_time'
p7
S'2014-12-01 22:33:26.512031'
p8
sS'vmid'
p9
g3
sS'max_memory'
p10
F2162152.0
sS'io'
p11
F1.0
sS'vmip'
p12
S'192.168.1.85'
p13
sS'current_cpu'
p14
F1.0
sS'current_memory'
p15
F2102152.0
sbsS'VM_Task_2'
p16
(iGuest
Guest
p17
(dp18
g6
F8.0
sg7
S'2014-12-01 22:32:03.661029'
p19
sg9
g16
sg10
F2162152.0
sg11
F1.0
sg12
S'192.168.1.84'
p20
sg14
F1.0
sg15
F2102152.0
sbssVnode3
p21
(dp22
sVnode2
p23
(dp24
sVnode4
p25
(dp26
s.