(dp0
Vnode1
p1
(dp2
S'VM_Task_14'
p3
(iGuest
Guest
p4
(dp5
S'max_cpu'
p6
F1.0
sS'start_time'
p7
S'2014-11-30 21:59:52.082343'
p8
sS'vmid'
p9
g3
sS'max_memory'
p10
F2162152.0
sS'io'
p11
F1.0
sS'vmip'
p12
S'192.168.1.93'
p13
sS'current_cpu'
p14
F1.0
sS'current_memory'
p15
F2102152.0
sbsS'VM_Task_11'
p16
(iGuest
Guest
p17
(dp18
g6
F1.0
sg7
S'2014-11-30 22:07:25.508623'
p19
sg9
S'VM_Task_11'
p20
sg10
F2162152.0
sg11
F1.0
sg12
S'192.168.1.96'
p21
sg14
F1.0
sg15
F2102152.0
sbsS'VM_Task_100'
p22
(iGuest
Guest
p23
(dp24
g6
F1.0
sg7
S'2014-11-30 22:06:04.552601'
p25
sg9
S'VM_Task_100'
p26
sg10
F2162152.0
sg11
F1.0
sg12
S'192.168.1.95'
p27
sg14
F1.0
sg15
F2102152.0
sbsS'VM_Task_13'
p28
(iGuest
Guest
p29
(dp30
g6
F1.0
sg7
S'2014-11-30 21:58:30.337489'
p31
sg9
g28
sg10
F2162152.0
sg11
F1.0
sg12
S'192.168.1.92'
p32
sg14
F1.0
sg15
F2102152.0
sbsS'VM_Task_12'
p33
(iGuest
Guest
p34
(dp35
g6
F1.0
sg7
S'2014-11-30 21:57:12.383116'
p36
sg9
g33
sg10
F2162152.0
sg11
F1.0
sg12
S'192.168.1.91'
p37
sg14
F1.0
sg15
F2102152.0
sbssVnode3
p38
(dp39
sVnode2
p40
(dp41
sVnode4
p42
(dp43
s.