(dp0
Vnode1
p1
(dp2
S'VM_Task_20'
p3
(iGuest
Guest
p4
(dp5
S'max_cpu'
p6
F8.0
sS'start_time'
p7
S'2014-12-17 00:36:50.508408'
p8
sS'vmid'
p9
g3
sS'max_memory'
p10
F2162152.0
sS'io'
p11
F1.0
sS'vmip'
p12
S'192.168.1.49'
p13
sS'current_cpu'
p14
F1.0
sS'current_memory'
p15
F2102152.0
sbsS'VM_Task_21'
p16
(iGuest
Guest
p17
(dp18
g6
F8.0
sg7
S'2014-12-17 00:40:43.146433'
p19
sg9
S'VM_Task_21'
p20
sg10
F2162152.0
sg11
F1.0
sg12
S'192.168.1.50'
p21
sg14
F1.0
sg15
F2145348.0
sbsS'VM_Task_22'
p22
(iGuest
Guest
p23
(dp24
g6
F8.0
sg7
S'2014-12-17 00:42:21.187360'
p25
sg9
g22
sg10
F2162152.0
sg11
F1.0
sg12
S'192.168.1.51'
p26
sg14
F1.0
sg15
F2102152.0
sbsS'VM_Task_23'
p27
(iGuest
Guest
p28
(dp29
g6
F8.0
sg7
S'2014-12-17 00:45:58.273948'
p30
sg9
g27
sg10
F2162152.0
sg11
F1.0
sg12
S'192.168.1.52'
p31
sg14
F1.0
sg15
F2102152.0
sbsS'VM_Task_32'
p32
(iGuest
Guest
p33
(dp34
g6
F8.0
sg7
S'2014-12-17 02:53:10.939660'
p35
sg9
S'VM_Task_32'
p36
sg10
F2162152.0
sg11
F1.0
sg12
S'192.168.1.56'
p37
sg14
F1.0
sg15
F2145348.0
sbsS'VM_Task_31'
p38
(iGuest
Guest
p39
(dp40
g6
F8.0
sg7
S'2014-12-17 01:17:23.397213'
p41
sg9
S'VM_Task_31'
p42
sg10
F2162152.0
sg11
F1.0
sg12
S'192.168.1.129'
p43
sg14
F1.0
sg15
F2145348.0
sbsS'VM_Task_34'
p44
(iGuest
Guest
p45
(dp46
g6
F8.0
sg7
S'2014-12-17 02:59:38.698120'
p47
sg9
g44
sg10
F2162152.0
sg11
F1.0
sg12
S'192.168.1.58'
p48
sg14
F1.0
sg15
F2102152.0
sbssVnode3
p49
(dp50
S'VM_Task_37'
p51
(iGuest
Guest
p52
(dp53
g6
F8.0
sg7
S'2014-12-17 03:10:56.987635'
p54
sg9
g51
sg10
F2162152.0
sg11
F1.0
sg12
S'192.168.1.13'
p55
sg14
F1.0
sg15
F2102152.0
sbsS'VM_Task_36'
p56
(iGuest
Guest
p57
(dp58
g6
F8.0
sg7
S'2014-12-17 03:07:35.681747'
p59
sg9
S'VM_Task_36'
p60
sg10
F2162152.0
sg11
F1.0
sg12
S'192.168.1.130'
p61
sg14
F1.0
sg15
F2145348.0
sbsS'VM_Task_35'
p62
(iGuest
Guest
p63
(dp64
g6
F8.0
sg7
S'2014-12-17 03:04:34.696123'
p65
sg9
S'VM_Task_35'
p66
sg10
F2162152.0
sg11
F1.0
sg12
S'192.168.1.59'
p67
sg14
F1.0
sg15
F2145348.0
sbsS'VM_Task_2'
p68
(iGuest
Guest
p69
(dp70
g6
F8.0
sg7
S'2014-12-17 00:35:17.834428'
p71
sg9
g68
sg10
F2162152.0
sg11
F1.0
sg12
S'192.168.1.13'
p72
sg14
F1.0
sg15
F2102152.0
sbssVnode2
p73
(dp74
S'VM_Task_3'
p75
(iGuest
Guest
p76
(dp77
g6
F8.0
sg7
S'2014-12-17 01:09:01.789138'
p78
sg9
g75
sg10
F2162152.0
sg11
F1.0
sg12
S'192.168.1.12'
p79
sg14
F1.0
sg15
F2102152.0
sbsS'VM_Task_24'
p80
(iGuest
Guest
p81
(dp82
g6
F8.0
sg7
S'2014-12-17 00:49:34.396021'
p83
sg9
S'VM_Task_24'
p84
sg10
F2162152.0
sg11
F1.0
sg12
S'192.168.1.53'
p85
sg14
F1.0
sg15
F2145348.0
sbsS'VM_Task_25'
p86
(iGuest
Guest
p87
(dp88
g6
F8.0
sg7
S'2014-12-17 00:53:47.809066'
p89
sg9
g86
sg10
F2162152.0
sg11
F1.0
sg12
S'192.168.1.12'
p90
sg14
F1.0
sg15
F2102152.0
sbsS'VM_Task_26'
p91
(iGuest
Guest
p92
(dp93
g6
F8.0
sg7
S'2014-12-17 00:57:27.475494'
p94
sg9
g91
sg10
F2162152.0
sg11
F1.0
sg12
S'192.168.1.12'
p95
sg14
F1.0
sg15
F2102152.0
sbsS'VM_Task_27'
p96
(iGuest
Guest
p97
(dp98
g6
F8.0
sg7
S'2014-12-17 00:58:58.857718'
p99
sg9
S'VM_Task_27'
p100
sg10
F2162152.0
sg11
F1.0
sg12
S'192.168.1.124'
p101
sg14
F1.0
sg15
F2145348.0
sbsS'VM_Task_28'
p102
(iGuest
Guest
p103
(dp104
g6
F8.0
sg7
S'2014-12-17 01:03:01.676972'
p105
sg9
g102
sg10
F2162152.0
sg11
F1.0
sg12
S'192.168.1.12'
p106
sg14
F1.0
sg15
F2102152.0
sbsS'VM_Task_29'
p107
(iGuest
Guest
p108
(dp109
g6
F8.0
sg7
S'2014-12-17 01:04:33.608346'
p110
sg9
S'VM_Task_29'
p111
sg10
F2162152.0
sg11
F1.0
sg12
S'192.168.1.126'
p112
sg14
F1.0
sg15
F2145348.0
sbssVnode4
p113
(dp114
S'VM_Task_33'
p115
(iGuest
Guest
p116
(dp117
g6
F8.0
sg7
S'2014-12-17 02:57:58.466226'
p118
sg9
g115
sg10
F2162152.0
sg11
F1.0
sg12
S'192.168.1.14'
p119
sg14
F1.0
sg15
F2102152.0
sbsS'VM_Task_30'
p120
(iGuest
Guest
p121
(dp122
g6
F8.0
sg7
S'2014-12-17 01:10:34.155308'
p123
sg9
S'VM_Task_30'
p124
sg10
F2162152.0
sg11
F1.0
sg12
S'192.168.1.128'
p125
sg14
F1.0
sg15
F2145348.0
sbss.