(dp0
Vnode1
p1
(dp2
S'VM_Task_13'
p3
(iGuest
Guest
p4
(dp5
S'max_cpu'
p6
F8.0
sS'start_time'
p7
S'2014-12-01 15:45:18.500036'
p8
sS'vmid'
p9
S'VM_Task_13'
p10
sS'max_memory'
p11
F2162152.0
sS'io'
p12
F1.0
sS'vmip'
p13
S'192.168.1.38'
p14
sS'current_cpu'
p15
F1.0
sS'current_memory'
p16
F2102152.0
sbsS'VM_Task_19'
p17
(iGuest
Guest
p18
(dp19
g6
F8.0
sg7
S'2014-12-01 15:55:26.980192'
p20
sg9
g17
sg11
F2162152.0
sg12
F1.0
sg13
S'192.168.1.47'
p21
sg15
F1.0
sg16
F2102152.0
sbsS'VM_Task_18'
p22
(iGuest
Guest
p23
(dp24
g6
F8.0
sg7
S'2014-12-01 15:53:38.967207'
p25
sg9
g22
sg11
F2162152.0
sg12
F1.0
sg13
S'192.168.1.46'
p26
sg15
F1.0
sg16
F2102152.0
sbsS'VM_Task_15'
p27
(iGuest
Guest
p28
(dp29
g6
F8.0
sg7
S'2014-12-01 15:48:24.351057'
p30
sg9
S'VM_Task_15'
p31
sg11
F2162152.0
sg12
F1.0
sg13
S'192.168.1.43'
p32
sg15
F2.0
sg16
F2102152.0
sbsS'VM_Task_14'
p33
(iGuest
Guest
p34
(dp35
g6
F8.0
sg7
S'2014-12-01 15:46:48.454019'
p36
sg9
g33
sg11
F2162152.0
sg12
F1.0
sg13
S'192.168.1.2'
p37
sg15
F1.0
sg16
F2102152.0
sbsS'VM_Task_17'
p38
(iGuest
Guest
p39
(dp40
g6
F8.0
sg7
S'2014-12-01 15:51:50.317080'
p41
sg9
S'VM_Task_17'
p42
sg11
F2162152.0
sg12
F1.0
sg13
S'192.168.1.45'
p43
sg15
F1.0
sg16
F2102152.0
sbsS'VM_Task_16'
p44
(iGuest
Guest
p45
(dp46
g6
F8.0
sg7
S'2014-12-01 15:50:01.493921'
p47
sg9
g44
sg11
F2162152.0
sg12
F1.0
sg13
S'192.168.1.44'
p48
sg15
F1.0
sg16
F2102152.0
sbsS'VM_Task_11'
p49
(iGuest
Guest
p50
(dp51
g6
F8.0
sg7
S'2014-12-01 15:42:27.551287'
p52
sg9
g49
sg11
F2162152.0
sg12
F1.0
sg13
S'192.168.1.20'
p53
sg15
F1.0
sg16
F2102152.0
sbsS'VM_Task_100'
p54
(iGuest
Guest
p55
(dp56
g6
F8.0
sg7
S'2014-12-01 15:41:07.647444'
p57
sg9
S'VM_Task_100'
p58
sg11
F2162152.0
sg12
F1.0
sg13
S'192.168.1.19'
p59
sg15
F2.0
sg16
F2102152.0
sbsS'VM_Task_12'
p60
(iGuest
Guest
p61
(dp62
g6
F8.0
sg7
S'2014-12-01 15:43:51.003286'
p63
sg9
S'VM_Task_12'
p64
sg11
F2162152.0
sg12
F1.0
sg13
S'192.168.1.36'
p65
sg15
F1.0
sg16
F2102152.0
sbssVnode3
p66
(dp67
sVnode2
p68
(dp69
sVnode4
p70
(dp71
s.