(dp0
Vnode1
p1
(dp2
S'VM_Task_15'
p3
(iGuest
Guest
p4
(dp5
S'max_cpu'
p6
F8.0
sS'start_time'
p7
S'2014-12-17 14:15:03.463301'
p8
sS'vmid'
p9
S'VM_Task_15'
p10
sS'max_memory'
p11
F2162152.0
sS'io'
p12
F1.0
sS'vmip'
p13
S'192.168.1.230'
p14
sS'current_cpu'
p15
F2.0
sS'current_memory'
p16
F2145348.0
sbsS'VM_Task_14'
p17
(iGuest
Guest
p18
(dp19
g6
F8.0
sg7
S'2014-12-17 14:13:36.029311'
p20
sg9
S'VM_Task_14'
p21
sg11
F2162152.0
sg12
F1.0
sg13
S'192.168.1.229'
p22
sg15
F2.0
sg16
F2145348.0
sbsS'VM_Task_16'
p23
(iGuest
Guest
p24
(dp25
g6
F8.0
sg7
S'2014-12-17 14:16:42.099009'
p26
sg9
S'VM_Task_16'
p27
sg11
F2162152.0
sg12
F1.0
sg13
S'192.168.1.231'
p28
sg15
F2.0
sg16
F2145348.0
sbssS'node3'
p29
(dp30
S'VM_Task_17'
p31
(iGuest
Guest
p32
(dp33
g6
F8.0
sg7
S'2014-12-17 14:18:35.175306'
p34
sg9
S'VM_Task_17'
p35
sg11
F2162152.0
sg12
F1.0
sg13
S'192.168.1.232'
p36
sg15
F2.0
sg16
F2145348.0
sbsS'VM_Task_11'
p37
(iGuest
Guest
p38
(dp39
g6
F8.0
sg7
S'2014-12-17 14:09:21.650111'
p40
sg9
g37
sg11
F2162152.0
sg12
F1.0
sg13
S'192.168.1.226'
p41
sg15
F2.0
sg16
F2145348.0
sbsS'VM_Task_18'
p42
(iGuest
Guest
p43
(dp44
g6
F8.0
sg7
S'2014-12-17 14:22:04.878123'
p45
sg9
g42
sg11
F2162152.0
sg12
F1.0
sg13
S'192.168.1.13'
p46
sg15
F1.0
sg16
F2102152.0
sbssS'node2'
p47
(dp48
S'VM_Task_13'
p49
(iGuest
Guest
p50
(dp51
g6
F8.0
sg7
S'2014-12-17 14:12:05.207142'
p52
sg9
g49
sg11
F2162152.0
sg12
F1.0
sg13
S'192.168.1.228'
p53
sg15
F1.0
sg16
F2145348.0
sbsS'VM_Task_12'
p54
(iGuest
Guest
p55
(dp56
g6
F8.0
sg7
S'2014-12-17 14:10:42.521654'
p57
sg9
g54
sg11
F2162152.0
sg12
F1.0
sg13
S'192.168.1.227'
p58
sg15
F2.0
sg16
F2145348.0
sbssVnode4
p59
(dp60
s.