(dp0
Vnode1
p1
(dp2
S'VM_Task_100'
p3
(iGuest
Guest
p4
(dp5
S'max_cpu'
p6
F1.0
sS'start_time'
p7
F1417066731.706445
sS'vmid'
p8
g3
sS'max_memory'
p9
F2162152.0
sS'io'
p10
F1.0
sS'vmip'
p11
S'192.168.1.19'
p12
sS'current_cpu'
p13
F1.0
sS'current_memory'
p14
F2102152.0
sbsS'VM_Task_15'
p15
(iGuest
Guest
p16
(dp17
g6
F1.0
sg7
F1417067440.465329
sg8
g15
sg9
F2162152.0
sg10
F1.0
sg11
S'192.168.1.44'
p18
sg13
F1.0
sg14
F2102152.0
sbsS'VM_Task_14'
p19
(iGuest
Guest
p20
(dp21
g6
F1.0
sg7
F1417067142.319656
sg8
g19
sg9
F2162152.0
sg10
F1.0
sg11
S'192.168.1.43'
p22
sg13
F1.0
sg14
F2102152.0
sbsS'VM_Task_16'
p23
(iGuest
Guest
p24
(dp25
g6
F1.0
sg7
F1417067547.897773
sg8
g23
sg9
F2162152.0
sg10
F1.0
sg11
S'192.168.1.45'
p26
sg13
F1.0
sg14
F2102152.0
sbsS'VM_Task_11'
p27
(iGuest
Guest
p28
(dp29
g6
F1.0
sg7
F1417066829.526444
sg8
g27
sg9
F2162152.0
sg10
F1.0
sg11
S'192.168.1.20'
p30
sg13
F1.0
sg14
F2102152.0
sbsS'VM_Task_13'
p31
(iGuest
Guest
p32
(dp33
g6
F1.0
sg7
F1417067037.797489
sg8
g31
sg9
F2162152.0
sg10
F1.0
sg11
S'192.168.1.38'
p34
sg13
F1.0
sg14
F2102152.0
sbsS'VM_Task_12'
p35
(iGuest
Guest
p36
(dp37
g6
F1.0
sg7
F1417066929.997602
sg8
g35
sg9
F2162152.0
sg10
F1.0
sg11
S'192.168.1.36'
p38
sg13
F1.0
sg14
F2102152.0
sbssVnode3
p39
(dp40
S'VM_Task_2'
p41
(iGuest
Guest
p42
(dp43
g6
F1.0
sg7
F1417068159.633226
sg8
g41
sg9
F2162152.0
sg10
F1.0
sg11
S'192.168.1.49'
p44
sg13
F1.0
sg14
F2102152.0
sbsS'VM_Task_20'
p45
(iGuest
Guest
p46
(dp47
g6
F1.0
sg7
F1417068315.219841
sg8
g45
sg9
F2162152.0
sg10
F1.0
sg11
S'192.168.1.50'
p48
sg13
F1.0
sg14
F2102152.0
sbsS'VM_Task_21'
p49
(iGuest
Guest
p50
(dp51
g6
F1.0
sg7
F1417068481.66404
sg8
g49
sg9
F2162152.0
sg10
F1.0
sg11
S'192.168.1.51'
p52
sg13
F1.0
sg14
F2102152.0
sbsS'VM_Task_19'
p53
(iGuest
Guest
p54
(dp55
g6
F1.0
sg7
F1417068002.944903
sg8
g53
sg9
F2162152.0
sg10
F1.0
sg11
S'192.168.1.48'
p56
sg13
F1.0
sg14
F2102152.0
sbsS'VM_Task_18'
p57
(iGuest
Guest
p58
(dp59
g6
F1.0
sg7
F1417067848.116234
sg8
g57
sg9
F2162152.0
sg10
F1.0
sg11
S'192.168.1.47'
p60
sg13
F1.0
sg14
F2102152.0
sbsS'VM_Task_17'
p61
(iGuest
Guest
p62
(dp63
g6
F1.0
sg7
F1417067697.080302
sg8
g61
sg9
F2162152.0
sg10
F1.0
sg11
S'192.168.1.46'
p64
sg13
F1.0
sg14
F2102152.0
sbssVnode2
p65
(dp66
S'VM_Task_22'
p67
(iGuest
Guest
p68
(dp69
g6
F1.0
sg7
F1417068862.6381
sg8
g67
sg9
F2162152.0
sg10
F1.0
sg11
S'192.168.1.53'
p70
sg13
F1.0
sg14
F2102152.0
sbsS'VM_Task_23'
p71
(iGuest
Guest
p72
(dp73
g6
F1.0
sg7
F1417069041.598441
sg8
g71
sg9
F2162152.0
sg10
F1.0
sg11
S'192.168.1.54'
p74
sg13
F1.0
sg14
F2102152.0
sbssVnode4
p75
(dp76
s.