(dp0
Vnode1
p1
(dp2
S'VM_Task_100'
p3
(iGuest
Guest
p4
(dp5
S'max_cpu'
p6
F8.0
sS'start_time'
p7
S'2014-12-05 18:23:48.213582'
p8
sS'vmid'
p9
g3
sS'max_memory'
p10
F2162152.0
sS'io'
p11
F1.0
sS'vmip'
p12
S'192.168.1.30'
p13
sS'current_cpu'
p14
F1.0
sS'current_memory'
p15
F2102152.0
sbssVnode3
p16
(dp17
sVnode2
p18
(dp19
sVnode4
p20
(dp21
s.