(dp0
Vnode1
p1
(dp2
S'VM_Task_15'
p3
(iGuest
Guest
p4
(dp5
S'max_cpu'
p6
F8.0
sS'start_time'
p7
S'2014-12-01 17:56:18.852690'
p8
sS'vmid'
p9
S'VM_Task_15'
p10
sS'max_memory'
p11
F2162152.0
sS'io'
p12
F1.0
sS'vmip'
p13
S'192.168.1.9'
p14
sS'current_cpu'
p15
F1.0
sS'current_memory'
p16
F2102152.0
sbsS'VM_Task_19'
p17
(iGuest
Guest
p18
(dp19
g6
F8.0
sg7
S'2014-12-01 18:09:06.452701'
p20
sg9
g17
sg11
F2162152.0
sg12
F1.0
sg13
Nsg15
F1.0
sg16
F2102152.0
sbsS'VM_Task_11'
p21
(iGuest
Guest
p22
(dp23
g6
F8.0
sg7
S'2014-12-01 17:49:19.752226'
p24
sg9
S'VM_Task_11'
p25
sg11
F2162152.0
sg12
F1.0
sg13
S'192.168.1.4'
p26
sg15
F1.0
sg16
F2130000.0
sbsS'VM_Task_18'
p27
(iGuest
Guest
p28
(dp29
g6
F8.0
sg7
S'2014-12-01 18:02:51.458962'
p30
sg9
S'VM_Task_18'
p31
sg11
F2162152.0
sg12
F1.0
sg13
S'192.168.1.16'
p32
sg15
F1.0
sg16
F2102152.0
sbsS'VM_Task_12'
p33
(iGuest
Guest
p34
(dp35
g6
F8.0
sg7
S'2014-12-01 17:50:39.555086'
p36
sg9
g33
sg11
F2162152.0
sg12
F1.0
sg13
S'192.168.1.6'
p37
sg15
F1.0
sg16
F2102152.0
sbssVnode3
p38
(dp39
S'VM_Task_14'
p40
(iGuest
Guest
p41
(dp42
g6
F8.0
sg7
S'2014-12-01 17:53:34.339415'
p43
sg9
S'VM_Task_14'
p44
sg11
F2162152.0
sg12
F1.0
sg13
S'192.168.1.8'
p45
sg15
F1.0
sg16
F2102152.0
sbsS'VM_Task_16'
p46
(iGuest
Guest
p47
(dp48
g6
F8.0
sg7
S'2014-12-01 17:57:59.379226'
p49
sg9
S'VM_Task_16'
p50
sg11
F2162152.0
sg12
F1.0
sg13
S'192.168.1.10'
p51
sg15
F1.0
sg16
F2102152.0
sbsS'VM_Task_13'
p52
(iGuest
Guest
p53
(dp54
g6
F8.0
sg7
S'2014-12-01 17:51:58.460236'
p55
sg9
S'VM_Task_13'
p56
sg11
F2162152.0
sg12
F1.0
sg13
S'192.168.1.7'
p57
sg15
F2.0
sg16
F2102152.0
sbssVnode2
p58
(dp59
sVnode4
p60
(dp61
s.