(dp0
Vnode1
p1
(dp2
S'VM_Task_1'
p3
(iGuest
Guest
p4
(dp5
S'max_cpu'
p6
F1.0
sS'start_time'
p7
F1415144329.151446
sS'vmid'
p8
g3
sS'max_memory'
p9
F2157152.0
sS'io'
p10
F1.0
sS'vmip'
p11
S'192.168.1.18'
p12
sS'current_cpu'
p13
F1.0
sS'current_memory'
p14
F2102152.0
sbsS'VM_Task_15'
p15
(iGuest
Guest
p16
(dp17
g6
F1.0
sg7
F1415144893.95825
sg8
g15
sg9
F2157152.0
sg10
F1.0
sg11
S'192.168.1.8'
p18
sg13
F1.0
sg14
F2102152.0
sbsS'VM_Task_14'
p19
(iGuest
Guest
p20
(dp21
g6
F1.0
sg7
F1415144804.41228
sg8
g19
sg9
F2157152.0
sg10
F1.0
sg11
S'192.168.1.6'
p22
sg13
F1.0
sg14
F2102152.0
sbsS'VM_Task_11'
p23
(iGuest
Guest
p24
(dp25
g6
F1.0
sg7
F1415144537.963108
sg8
g23
sg9
F2157152.0
sg10
F1.0
sg11
S'192.168.1.3'
p26
sg13
F1.0
sg14
F2102152.0
sbsS'VM_Task_10'
p27
(iGuest
Guest
p28
(dp29
g6
F1.0
sg7
F1415144451.273524
sg8
g27
sg9
F2157152.0
sg10
F1.0
sg11
S'192.168.1.2'
p30
sg13
F1.0
sg14
F2102152.0
sbsS'VM_Task_13'
p31
(iGuest
Guest
p32
(dp33
g6
F1.0
sg7
F1415144716.760385
sg8
g31
sg9
F2157152.0
sg10
F1.0
sg11
S'192.168.1.5'
p34
sg13
F1.0
sg14
F2102152.0
sbsS'VM_Task_12'
p35
(iGuest
Guest
p36
(dp37
g6
F1.0
sg7
F1415144629.659723
sg8
g35
sg9
F2157152.0
sg10
F1.0
sg11
S'192.168.1.4'
p38
sg13
F1.0
sg14
F2102152.0
sbssVnode3
p39
(dp40
S'VM_Task_2'
p41
(iGuest
Guest
p42
(dp43
g6
F1.0
sg7
F1415145738.185823
sg8
g41
sg9
F2157152.0
sg10
F1.0
sg11
S'192.168.1.17'
p44
sg13
F1.0
sg14
F2102152.0
sbsS'VM_Task_20'
p45
(iGuest
Guest
p46
(dp47
g6
F1.0
sg7
F1415145888.387916
sg8
g45
sg9
F2157152.0
sg10
F1.0
sg11
S'192.168.1.19'
p48
sg13
F1.0
sg14
F2102152.0
sbsS'VM_Task_21'
p49
(iGuest
Guest
p50
(dp51
g6
F1.0
sg7
F1415146038.404858
sg8
g49
sg9
F2157152.0
sg10
F1.0
sg11
S'192.168.1.20'
p52
sg13
F1.0
sg14
F2102152.0
sbsS'VM_Task_19'
p53
(iGuest
Guest
p54
(dp55
g6
F1.0
sg7
F1415145587.504548
sg8
g53
sg9
F2157152.0
sg10
F1.0
sg11
S'192.168.1.16'
p56
sg13
F1.0
sg14
F2102152.0
sbsS'VM_Task_18'
p57
(iGuest
Guest
p58
(dp59
g6
F1.0
sg7
F1415145437.275506
sg8
g57
sg9
F2157152.0
sg10
F1.0
sg11
S'192.168.1.15'
p60
sg13
F1.0
sg14
F2102152.0
sbsS'VM_Task_17'
p61
(iGuest
Guest
p62
(dp63
g6
F1.0
sg7
F1415145218.414635
sg8
g61
sg9
F2157152.0
sg10
F1.0
sg11
S'192.168.1.10'
p64
sg13
F1.0
sg14
F2102152.0
sbsS'VM_Task_16'
p65
(iGuest
Guest
p66
(dp67
g6
F1.0
sg7
F1415145053.23601
sg8
g65
sg9
F2157152.0
sg10
F1.0
sg11
S'192.168.1.9'
p68
sg13
F1.0
sg14
F2102152.0
sbssVnode2
p69
(dp70
S'VM_Task_22'
p71
(iGuest
Guest
p72
(dp73
g6
F1.0
sg7
F1415146199.109691
sg8
g71
sg9
F2157152.0
sg10
F1.0
sg11
S'192.168.1.21'
p74
sg13
F1.0
sg14
F2102152.0
sbsS'VM_Task_23'
p75
(iGuest
Guest
p76
(dp77
g6
F1.0
sg7
F1415146366.040036
sg8
g75
sg9
F2157152.0
sg10
F1.0
sg11
S'192.168.1.22'
p78
sg13
F1.0
sg14
F2102152.0
sbsS'VM_Task_24'
p79
(iGuest
Guest
p80
(dp81
g6
F1.0
sg7
F1415146518.184395
sg8
g79
sg9
F2157152.0
sg10
F1.0
sg11
S'192.168.1.23'
p82
sg13
F1.0
sg14
F2102152.0
sbsS'VM_Task_25'
p83
(iGuest
Guest
p84
(dp85
g6
F1.0
sg7
F1415146683.596074
sg8
g83
sg9
F2157152.0
sg10
F1.0
sg11
S'192.168.1.24'
p86
sg13
F1.0
sg14
F2102152.0
sbsS'VM_Task_26'
p87
(iGuest
Guest
p88
(dp89
g6
F1.0
sg7
F1415146844.53519
sg8
g87
sg9
F2157152.0
sg10
F1.0
sg11
S'192.168.1.25'
p90
sg13
F1.0
sg14
F2102152.0
sbssVnode4
p91
(dp92
s.