(dp0
Vnode1
p1
(dp2
S'VM_Task_14'
p3
(iGuest
Guest
p4
(dp5
S'max_cpu'
p6
F1.0
sS'start_time'
p7
S'2014-12-01 00:40:59.952029'
p8
sS'vmid'
p9
g3
sS'max_memory'
p10
F2162152.0
sS'io'
p11
F1.0
sS'vmip'
p12
S'192.168.1.150'
p13
sS'current_cpu'
p14
F1.0
sS'current_memory'
p15
F2102152.0
sbsS'VM_Task_11'
p16
(iGuest
Guest
p17
(dp18
g6
F1.0
sg7
S'2014-12-01 00:36:56.453167'
p19
sg9
g16
sg10
F2162152.0
sg11
F1.0
sg12
S'192.168.1.147'
p20
sg14
F1.0
sg15
F2102152.0
sbsS'VM_Task_100'
p21
(iGuest
Guest
p22
(dp23
g6
F1.0
sg7
S'2014-12-01 00:35:36.698942'
p24
sg9
g21
sg10
F2162152.0
sg11
F1.0
sg12
S'192.168.1.146'
p25
sg14
F1.0
sg15
F2102152.0
sbsS'VM_Task_13'
p26
(iGuest
Guest
p27
(dp28
g6
F1.0
sg7
S'2014-12-01 00:39:40.107972'
p29
sg9
g26
sg10
F2162152.0
sg11
F1.0
sg12
S'192.168.1.149'
p30
sg14
F1.0
sg15
F2102152.0
sbsS'VM_Task_12'
p31
(iGuest
Guest
p32
(dp33
g6
F1.0
sg7
S'2014-12-01 00:38:19.417017'
p34
sg9
g31
sg10
F2162152.0
sg11
F1.0
sg12
S'192.168.1.148'
p35
sg14
F1.0
sg15
F2102152.0
sbssVnode3
p36
(dp37
sVnode2
p38
(dp39
sVnode4
p40
(dp41
s.