(dp0
Vnode1
p1
(iNode
Node
p2
(dp3
S'max_cpu'
p4
F8.0
sS'ip_address'
p5
S'192.168.1.11'
p6
sS'hostname'
p7
S'node1'
p8
sS'max_memory'
p9
F32689796.0
sS'max_io'
p10
F1073741824.0
sS'avail_io'
p11
F1031798789.0
sS'avail_memory'
p12
F21579036.0
sS'avail_cpu'
p13
F1.0
sbsVnode3
p14
(iNode
Node
p15
(dp16
g4
F8.0
sg11
F1073741829.0
sg7
S'node3'
p17
sg9
F32689796.0
sg13
F13.0
sg10
F1073741824.0
sg5
S'192.168.1.13'
p18
sg12
F43200556.0
sbsVnode2
p19
(iNode
Node
p20
(dp21
g4
F8.0
sg5
S'192.168.1.12'
p22
sg7
S'node2'
p23
sg9
F32689796.0
sg10
F1073741824.0
sg11
F1073741824.0
sg12
F32689796.0
sg13
F7.0
sbsVnode4
p24
(iNode
Node
p25
(dp26
g4
F8.0
sg5
S'192.168.1.14'
p27
sg7
S'node4'
p28
sg9
F32689796.0
sg10
F1073741824.0
sg11
F1073741824.0
sg12
F32689796.0
sg13
F7.0
sbs.