(dp0
Vnode1
p1
(iNode
Node
p2
(dp3
S'max_cpu'
p4
F8.0
sS'avail_io'
p5
F1069547520.0
sS'hostname'
p6
S'node1'
p7
sS'max_memory'
p8
F32689796.0
sS'avail_cpu'
p9
F6.0
sS'max_io'
p10
F1073741824.0
sS'ip_address'
p11
S'192.168.1.11'
p12
sS'avail_memory'
p13
F30527644.0
sbsVnode3
p14
(iNode
Node
p15
(dp16
g4
F8.0
sg11
S'192.168.1.13'
p17
sg6
S'node3'
p18
sg8
F32689796.0
sg10
F1073741824.0
sg5
F1073741824.0
sg13
F32689796.0
sg9
F7.0
sbsVnode2
p19
(iNode
Node
p20
(dp21
g4
F8.0
sg11
S'192.168.1.12'
p22
sg6
S'node2'
p23
sg8
F32689796.0
sg10
F1073741824.0
sg5
F1073741824.0
sg13
F32689796.0
sg9
F7.0
sbsVnode4
p24
(iNode
Node
p25
(dp26
g4
F8.0
sg11
S'192.168.1.14'
p27
sg6
S'node4'
p28
sg8
F32689796.0
sg10
F1073741824.0
sg5
F1073741824.0
sg13
F32689796.0
sg9
F7.0
sbs.