(dp0
Vnode1
p1
(dp2
S'Task1'
p3
(iGuest
Guest
p4
(dp5
S'max_cpu'
p6
F3.0
sS'vmid'
p7
g3
sS'max_memory'
p8
F424242.0
sS'io'
p9
F1.0
sS'vmip'
p10
S'192.168.1.14'
p11
sS'current_cpu'
p12
F1.0
sS'current_memory'
p13
F42424345353.0
sbsS'VM_Task_1'
p14
(iGuest
Guest
p15
(dp16
g6
F1.0
sg7
g14
sg8
F1108576.0
sg9
F1.0
sg10
S'192.168.1.19'
p17
sg12
F1.0
sg13
F1108576.0
sbsS'VM_Task_13'
p18
(iGuest
Guest
p19
(dp20
g6
F1.0
sg7
g18
sg8
F1108576.0
sg9
F1.0
sg10
S'192.168.1.8'
p21
sg12
F1.0
sg13
F1108576.0
sbsS'VM_Task_14'
p22
(iGuest
Guest
p23
(dp24
g6
F1.0
sg7
g22
sg8
F1108576.0
sg9
F1.0
sg10
S'192.168.1.9'
p25
sg12
F1.0
sg13
F1108576.0
sbsS'VM_Task_11'
p26
(iGuest
Guest
p27
(dp28
g6
F1.0
sg7
g26
sg8
F1108576.0
sg9
F1.0
sg10
S'192.168.1.6'
p29
sg12
F1.0
sg13
F1108576.0
sbsS'VM_Task_10'
p30
(iGuest
Guest
p31
(dp32
g6
F1.0
sg7
g30
sg8
F1108576.0
sg9
F1.0
sg10
S'192.168.1.4'
p33
sg12
F1.0
sg13
F1108576.0
sbsS'VM_Task_100'
p34
(iGuest
Guest
p35
(dp36
g6
F1.0
sg7
g34
sg8
F1108576.0
sg9
F1.0
sg10
S'192.168.1.5'
p37
sg12
F1.0
sg13
F1108576.0
sbsS'VM_Task_12'
p38
(iGuest
Guest
p39
(dp40
g6
F1.0
sg7
g38
sg8
F1108576.0
sg9
F1.0
sg10
S'192.168.1.7'
p41
sg12
F1.0
sg13
F1108576.0
sbssVnode3
p42
(dp43
sVnode2
p44
(dp45
sVnode4
p46
(dp47
s.