(dp0
Vnode1
p1
(dp2
S'VM_Task_1'
p3
(iGuest
Guest
p4
(dp5
S'max_cpu'
p6
F1.0
sS'start_time'
p7
F1415135612.240153
sS'vmid'
p8
g3
sS'max_memory'
p9
F2157152.0
sS'io'
p10
F1.0
sS'vmip'
p11
S'192.168.1.30'
p12
sS'current_cpu'
p13
F1.0
sS'current_memory'
p14
F2102152.0
sbsS'VM_Task_15'
p15
(iGuest
Guest
p16
(dp17
g6
F1.0
sg7
F1415136156.086966
sg8
g15
sg9
F2157152.0
sg10
F1.0
sg11
S'192.168.1.25'
p18
sg13
F1.0
sg14
F2102152.0
sbsS'VM_Task_14'
p19
(iGuest
Guest
p20
(dp21
g6
F1.0
sg7
F1415136049.982332
sg8
g19
sg9
F2157152.0
sg10
F1.0
sg11
S'192.168.1.24'
p22
sg13
F1.0
sg14
F2102152.0
sbsS'VM_Task_11'
p23
(iGuest
Guest
p24
(dp25
g6
F1.0
sg7
F1415135778.593827
sg8
g23
sg9
F2157152.0
sg10
F1.0
sg11
S'192.168.1.21'
p26
sg13
F1.0
sg14
F2102152.0
sbsS'VM_Task_10'
p27
(iGuest
Guest
p28
(dp29
g6
F1.0
sg7
F1415135694.1245
sg8
g27
sg9
F2157152.0
sg10
F1.0
sg11
S'192.168.1.20'
p30
sg13
F1.0
sg14
F2102152.0
sbsS'VM_Task_13'
p31
(iGuest
Guest
p32
(dp33
g6
F1.0
sg7
F1415135960.584638
sg8
g31
sg9
F2157152.0
sg10
F1.0
sg11
S'192.168.1.23'
p34
sg13
F1.0
sg14
F2102152.0
sbsS'VM_Task_12'
p35
(iGuest
Guest
p36
(dp37
g6
F1.0
sg7
F1415135877.320774
sg8
g35
sg9
F2157152.0
sg10
F1.0
sg11
S'192.168.1.22'
p38
sg13
F1.0
sg14
F2102152.0
sbssVnode3
p39
(dp40
S'VM_Task_2'
p41
(iGuest
Guest
p42
(dp43
g6
F1.0
sg7
F1415136918.312961
sg8
g41
sg9
F2157152.0
sg10
F1.0
sg11
S'192.168.1.27'
p44
sg13
F1.0
sg14
F2102152.0
sbsS'VM_Task_20'
p45
(iGuest
Guest
p46
(dp47
g6
F1.0
sg7
F1415137124.913777
sg8
g45
sg9
F2157152.0
sg10
F1.0
sg11
S'192.168.1.35'
p48
sg13
F1.0
sg14
F2102152.0
sbsS'VM_Task_21'
p49
(iGuest
Guest
p50
(dp51
g6
F1.0
sg7
F1415137324.921232
sg8
g49
sg9
F2157152.0
sg10
F1.0
sg11
S'192.168.1.36'
p52
sg13
F1.0
sg14
F2102152.0
sbsS'VM_Task_19'
p53
(iGuest
Guest
p54
(dp55
g6
F1.0
sg7
F1415136752.511156
sg8
g53
sg9
F2157152.0
sg10
F1.0
sg11
S'192.168.1.10'
p56
sg13
F1.0
sg14
F2102152.0
sbsS'VM_Task_18'
p57
(iGuest
Guest
p58
(dp59
g6
F1.0
sg7
F1415136602.187895
sg8
g57
sg9
F2157152.0
sg10
F1.0
sg11
S'192.168.1.9'
p60
sg13
F1.0
sg14
F2102152.0
sbsS'VM_Task_17'
p61
(iGuest
Guest
p62
(dp63
g6
F1.0
sg7
F1415136452.084572
sg8
g61
sg9
F2157152.0
sg10
F1.0
sg11
S'192.168.1.8'
p64
sg13
F1.0
sg14
F2102152.0
sbsS'VM_Task_16'
p65
(iGuest
Guest
p66
(dp67
g6
F1.0
sg7
F1415136301.666418
sg8
g65
sg9
F2157152.0
sg10
F1.0
sg11
S'192.168.1.26'
p68
sg13
F1.0
sg14
F2102152.0
sbssVnode2
p69
(dp70
S'VM_Task_22'
p71
(iGuest
Guest
p72
(dp73
g6
F1.0
sg7
F1415137471.39254
sg8
g71
sg9
F2157152.0
sg10
F1.0
sg11
S'192.168.1.37'
p74
sg13
F1.0
sg14
F2102152.0
sbsS'VM_Task_23'
p75
(iGuest
Guest
p76
(dp77
g6
F1.0
sg7
F1415137618.253883
sg8
g75
sg9
F2157152.0
sg10
F1.0
sg11
S'192.168.1.28'
p78
sg13
F1.0
sg14
F2102152.0
sbsS'VM_Task_24'
p79
(iGuest
Guest
p80
(dp81
g6
F1.0
sg7
F1415137773.348695
sg8
g79
sg9
F2157152.0
sg10
F1.0
sg11
S'192.168.1.38'
p82
sg13
F1.0
sg14
F2102152.0
sbsS'VM_Task_25'
p83
(iGuest
Guest
p84
(dp85
g6
F1.0
sg7
F1415137923.675246
sg8
g83
sg9
F2157152.0
sg10
F1.0
sg11
S'192.168.1.39'
p86
sg13
F1.0
sg14
F2102152.0
sbsS'VM_Task_26'
p87
(iGuest
Guest
p88
(dp89
g6
F1.0
sg7
F1415138074.143959
sg8
g87
sg9
F2157152.0
sg10
F1.0
sg11
S'192.168.1.40'
p90
sg13
F1.0
sg14
F2102152.0
sbsS'VM_Task_27'
p91
(iGuest
Guest
p92
(dp93
g6
F1.0
sg7
F1415138224.611634
sg8
g91
sg9
F2157152.0
sg10
F1.0
sg11
S'192.168.1.2'
p94
sg13
F1.0
sg14
F2102152.0
sbsS'VM_Task_28'
p95
(iGuest
Guest
p96
(dp97
g6
F1.0
sg7
F1415138370.243396
sg8
g95
sg9
F2157152.0
sg10
F1.0
sg11
S'192.168.1.3'
p98
sg13
F1.0
sg14
F2102152.0
sbssVnode4
p99
(dp100
S'VM_Task_3'
p101
(iGuest
Guest
p102
(dp103
g6
F1.0
sg7
F1415138807.738192
sg8
g101
sg9
F2157152.0
sg10
F1.0
sg11
S'192.168.1.5'
p104
sg13
F1.0
sg14
F2102152.0
sbsS'VM_Task_34'
p105
(iGuest
Guest
p106
(dp107
g6
F1.0
sg7
F1415139806.412463
sg8
g105
sg9
F2157152.0
sg10
F1.0
sg11
S'192.168.1.18'
p108
sg13
F1.0
sg14
F2102152.0
sbsS'VM_Task_33'
p109
(iGuest
Guest
p110
(dp111
g6
F1.0
sg7
F1415139532.648586
sg8
g109
sg9
F2157152.0
sg10
F1.0
sg11
S'192.168.1.17'
p112
sg13
F1.0
sg14
F2102152.0
sbsS'VM_Task_32'
p113
(iGuest
Guest
p114
(dp115
g6
F1.0
sg7
F1415139295.323769
sg8
g113
sg9
F2157152.0
sg10
F1.0
sg11
S'192.168.1.16'
p116
sg13
F1.0
sg14
F2102152.0
sbsS'VM_Task_31'
p117
(iGuest
Guest
p118
(dp119
g6
F1.0
sg7
F1415139130.242601
sg8
g117
sg9
F2157152.0
sg10
F1.0
sg11
S'192.168.1.15'
p120
sg13
F1.0
sg14
F2102152.0
sbsS'VM_Task_30'
p121
(iGuest
Guest
p122
(dp123
g6
F1.0
sg7
F1415138973.1769
sg8
g121
sg9
F2157152.0
sg10
F1.0
sg11
S'192.168.1.6'
p124
sg13
F1.0
sg14
F2102152.0
sbsS'VM_Task_29'
p125
(iGuest
Guest
p126
(dp127
g6
F1.0
sg7
F1415138642.689831
sg8
g125
sg9
F2157152.0
sg10
F1.0
sg11
S'192.168.1.4'
p128
sg13
F1.0
sg14
F2102152.0
sbss.