(dp0
Vnode1
p1
(dp2
S'VM_Task_1'
p3
(iGuest
Guest
p4
(dp5
S'max_cpu'
p6
F1.0
sS'vmid'
p7
g3
sS'max_memory'
p8
F1108576.0
sS'io'
p9
F1.0
sS'vmip'
p10
S'192.168.1.8'
p11
sS'current_cpu'
p12
F1.0
sS'current_memory'
p13
F1053576.0
sbsS'VM_Task_100'
p14
(iGuest
Guest
p15
(dp16
g6
F1.0
sg7
g14
sg8
F1108576.0
sg9
F1.0
sg10
S'192.168.1.6'
p17
sg12
F1.0
sg13
F1053576.0
sbsS'VM_Task_11'
p18
(iGuest
Guest
p19
(dp20
g6
F1.0
sg7
g18
sg8
F1108576.0
sg9
F1.0
sg10
S'192.168.1.7'
p21
sg12
F1.0
sg13
F1053576.0
sbsS'VM_Task_10'
p22
(iGuest
Guest
p23
(dp24
g6
F1.0
sg7
g22
sg8
F1108576.0
sg9
F1.0
sg10
S'192.168.1.4'
p25
sg12
F1.0
sg13
F1053576.0
sbsS'VM_Task_13'
p26
(iGuest
Guest
p27
(dp28
g6
F1.0
sg7
g26
sg8
F1108576.0
sg9
F1.0
sg10
S'192.168.1.10'
p29
sg12
F1.0
sg13
F1053576.0
sbsS'VM_Task_12'
p30
(iGuest
Guest
p31
(dp32
g6
F1.0
sg7
g30
sg8
F1108576.0
sg9
F1.0
sg10
S'192.168.1.9'
p33
sg12
F1.0
sg13
F1053576.0
sbssVnode3
p34
(dp35
S'VM_Task_2'
p36
(iGuest
Guest
p37
(dp38
g6
F1.0
sg7
g36
sg8
F1108576.0
sg9
F1.0
sg10
S'192.168.1.21'
p39
sg12
F1.0
sg13
F1053576.0
sbsS'VM_Task_19'
p40
(iGuest
Guest
p41
(dp42
g6
F1.0
sg7
g40
sg8
F1108576.0
sg9
F1.0
sg10
S'192.168.1.20'
p43
sg12
F1.0
sg13
F1053576.0
sbsS'VM_Task_18'
p44
(iGuest
Guest
p45
(dp46
g6
F1.0
sg7
g44
sg8
F1108576.0
sg9
F1.0
sg10
S'192.168.1.19'
p47
sg12
F1.0
sg13
F1053576.0
sbsS'VM_Task_15'
p48
(iGuest
Guest
p49
(dp50
g6
F1.0
sg7
g48
sg8
F1108576.0
sg9
F1.0
sg10
S'192.168.1.16'
p51
sg12
F1.0
sg13
F1053576.0
sbsS'VM_Task_14'
p52
(iGuest
Guest
p53
(dp54
g6
F1.0
sg7
g52
sg8
F1108576.0
sg9
F1.0
sg10
S'192.168.1.15'
p55
sg12
F1.0
sg13
F1053576.0
sbsS'VM_Task_17'
p56
(iGuest
Guest
p57
(dp58
g6
F1.0
sg7
g56
sg8
F1108576.0
sg9
F1.0
sg10
S'192.168.1.18'
p59
sg12
F1.0
sg13
F1053576.0
sbsS'VM_Task_16'
p60
(iGuest
Guest
p61
(dp62
g6
F1.0
sg7
g60
sg8
F1108576.0
sg9
F1.0
sg10
S'192.168.1.17'
p63
sg12
F1.0
sg13
F1053576.0
sbssVnode2
p64
(dp65
S'VM_Task_20'
p66
(iGuest
Guest
p67
(dp68
g6
F1.0
sg7
g66
sg8
F1108576.0
sg9
F1.0
sg10
S'192.168.1.22'
p69
sg12
F1.0
sg13
F1053576.0
sbsS'VM_Task_21'
p70
(iGuest
Guest
p71
(dp72
g6
F1.0
sg7
g70
sg8
F1108576.0
sg9
F1.0
sg10
S'192.168.1.23'
p73
sg12
F1.0
sg13
F1053576.0
sbsS'VM_Task_22'
p74
(iGuest
Guest
p75
(dp76
g6
F1.0
sg7
g74
sg8
F1108576.0
sg9
F1.0
sg10
S'192.168.1.24'
p77
sg12
F1.0
sg13
F1053576.0
sbsS'VM_Task_23'
p78
(iGuest
Guest
p79
(dp80
g6
F1.0
sg7
g78
sg8
F1108576.0
sg9
F1.0
sg10
S'192.168.1.25'
p81
sg12
F1.0
sg13
F1053576.0
sbsS'VM_Task_24'
p82
(iGuest
Guest
p83
(dp84
g6
F1.0
sg7
g82
sg8
F1108576.0
sg9
F1.0
sg10
S'192.168.1.26'
p85
sg12
F1.0
sg13
F1053576.0
sbsS'VM_Task_25'
p86
(iGuest
Guest
p87
(dp88
g6
F1.0
sg7
g86
sg8
F1108576.0
sg9
F1.0
sg10
S'192.168.1.27'
p89
sg12
F1.0
sg13
F1053576.0
sbsS'VM_Task_26'
p90
(iGuest
Guest
p91
(dp92
g6
F1.0
sg7
g90
sg8
F1108576.0
sg9
F1.0
sg10
S'192.168.1.28'
p93
sg12
F1.0
sg13
F1053576.0
sbssVnode4
p94
(dp95
S'VM_Task_3'
p96
(iGuest
Guest
p97
(dp98
g6
F1.0
sg7
g96
sg8
F1108576.0
sg9
F1.0
sg10
S'192.168.1.36'
p99
sg12
F1.0
sg13
F1053576.0
sbsS'VM_Task_30'
p100
(iGuest
Guest
p101
(dp102
g6
F1.0
sg7
g100
sg8
F1108576.0
sg9
F1.0
sg10
S'192.168.1.37'
p103
sg12
F1.0
sg13
F1053576.0
sbsS'VM_Task_32'
p104
(iGuest
Guest
p105
(dp106
g6
F1.0
sg7
g104
sg8
F1108576.0
sg9
F1.0
sg10
S'192.168.1.39'
p107
sg12
F1.0
sg13
F1053576.0
sbsS'VM_Task_31'
p108
(iGuest
Guest
p109
(dp110
g6
F1.0
sg7
g108
sg8
F1108576.0
sg9
F1.0
sg10
S'192.168.1.38'
p111
sg12
F1.0
sg13
F1053576.0
sbsS'VM_Task_27'
p112
(iGuest
Guest
p113
(dp114
g6
F1.0
sg7
g112
sg8
F1108576.0
sg9
F1.0
sg10
S'192.168.1.29'
p115
sg12
F1.0
sg13
F1053576.0
sbsS'VM_Task_28'
p116
(iGuest
Guest
p117
(dp118
g6
F1.0
sg7
g116
sg8
F1108576.0
sg9
F1.0
sg10
S'192.168.1.30'
p119
sg12
F1.0
sg13
F1053576.0
sbsS'VM_Task_29'
p120
(iGuest
Guest
p121
(dp122
g6
F1.0
sg7
g120
sg8
F1108576.0
sg9
F1.0
sg10
S'192.168.1.35'
p123
sg12
F1.0
sg13
F1053576.0
sbss.