(dp0
Vnode1
p1
(dp2
S'vm1'
p3
(iGuest
Guest
p4
(dp5
S'vmip'
p6
S'192.168.1.14'
p7
sS'vmid'
p8
g3
sS'cpu'
p9
F3.0
sS'io'
p10
F1.0
sS'memory'
p11
F424242.0
sbssVnode3
p12
(dp13
g3
(iGuest
Guest
p14
(dp15
g6
g7
sg8
g3
sg9
F3.0
sg10
F1.0
sg11
F424242.0
sbssVnode2
p16
(dp17
g3
(iGuest
Guest
p18
(dp19
g6
g7
sg8
g3
sg9
F3.0
sg10
F1.0
sg11
F424242.0
sbssVnode4
p20
(dp21
g3
(iGuest
Guest
p22
(dp23
g6
g7
sg8
g3
sg9
F3.0
sg10
F1.0
sg11
F424242.0
sbss.