(dp0
Vnode1
p1
(dp2
S'Task1'
p3
(iGuest
Guest
p4
(dp5
S'max_cpu'
p6
F3.0
sS'vmid'
p7
S'Task1'
p8
sS'max_memory'
p9
F424242.0
sS'io'
p10
F1.0
sS'vmip'
p11
S'192.168.1.14'
p12
sS'current_cpu'
p13
F1.0
sS'current_memory'
p14
F42424.0
sbsS'vm1'
p15
(iGuest
Guest
p16
(dp17
g6
F3.0
sg7
g15
sg9
F424242.0
sg10
F1.0
sg11
S'192.168.1.14'
p18
sg13
F1.0
sg14
F42424.0
sbssVnode3
p19
(dp20
g15
(iGuest
Guest
p21
(dp22
g6
F3.0
sg7
g15
sg9
F424242.0
sg10
F1.0
sg11
g18
sg13
F1.0
sg14
F42424.0
sbssVnode2
p23
(dp24
g15
(iGuest
Guest
p25
(dp26
g6
F3.0
sg7
g15
sg9
F424242.0
sg10
F1.0
sg11
g18
sg13
F1.0
sg14
F42424.0
sbssVnode4
p27
(dp28
g15
(iGuest
Guest
p29
(dp30
g6
F3.0
sg7
g15
sg9
F424242.0
sg10
F1.0
sg11
g18
sg13
F1.0
sg14
F42424.0
sbss.