(dp0
Vnode1
p1
(dp2
S'Task1'
p3
(iGuest
Guest
p4
(dp5
S'max_cpu'
p6
F3.0
sS'vmid'
p7
g3
sS'max_memory'
p8
F424242.0
sS'io'
p9
F1.0
sS'vmip'
p10
S'192.168.1.14'
p11
sS'current_cpu'
p12
F1.0
sS'current_memory'
p13
F42424.0
sbssVnode3
p14
(dp15
sVnode2
p16
(dp17
sVnode4
p18
(dp19
s.