(dp0
Vnode1
p1
(dp2
S'Task1'
p3
(iGuest
Guest
p4
(dp5
S'max_cpu'
p6
F3.0
sS'vmid'
p7
g3
sS'max_memory'
p8
F424242.0
sS'io'
p9
F1.0
sS'vmip'
p10
S'192.168.1.14'
p11
sS'current_cpu'
p12
F1.0
sS'current_memory'
p13
F42424345353.0
sbsS'VM_Task_1'
p14
(iGuest
Guest
p15
(dp16
g6
F1.0
sg7
g14
sg8
F1108576.0
sg9
F1.0
sg10
S'192.168.1.8'
p17
sg12
F1.0
sg13
F1108576.0
sbsS'VM_Task_100'
p18
(iGuest
Guest
p19
(dp20
g6
F1.0
sg7
g18
sg8
F1108576.0
sg9
F1.0
sg10
S'192.168.1.15'
p21
sg12
F1.0
sg13
F1108576.0
sbsS'VM_Task_14'
p22
(iGuest
Guest
p23
(dp24
g6
F1.0
sg7
g22
sg8
F1108576.0
sg9
F1.0
sg10
S'192.168.1.20'
p25
sg12
F1.0
sg13
F1108576.0
sbsS'VM_Task_11'
p26
(iGuest
Guest
p27
(dp28
g6
F1.0
sg7
g26
sg8
F1108576.0
sg9
F1.0
sg10
S'192.168.1.16'
p29
sg12
F1.0
sg13
F1108576.0
sbsS'VM_Task_10'
p30
(iGuest
Guest
p31
(dp32
g6
F1.0
sg7
g30
sg8
F1108576.0
sg9
F1.0
sg10
S'192.168.1.9'
p33
sg12
F1.0
sg13
F1108576.0
sbsS'VM_Task_13'
p34
(iGuest
Guest
p35
(dp36
g6
F1.0
sg7
g34
sg8
F1108576.0
sg9
F1.0
sg10
S'192.168.1.19'
p37
sg12
F1.0
sg13
F1108576.0
sbsS'VM_Task_12'
p38
(iGuest
Guest
p39
(dp40
g6
F1.0
sg7
g38
sg8
F1108576.0
sg9
F1.0
sg10
S'192.168.1.18'
p41
sg12
F1.0
sg13
F1108576.0
sbssVnode3
p42
(dp43
S'VM_Task_2'
p44
(iGuest
Guest
p45
(dp46
g6
F1.0
sg7
g44
sg8
F1108576.0
sg9
F1.0
sg10
S'192.168.1.26'
p47
sg12
F1.0
sg13
F1108576.0
sbsS'VM_Task_20'
p48
(iGuest
Guest
p49
(dp50
g6
F1.0
sg7
g48
sg8
F1108576.0
sg9
F1.0
sg10
S'192.168.1.27'
p51
sg12
F1.0
sg13
F1108576.0
sbsS'VM_Task_19'
p52
(iGuest
Guest
p53
(dp54
g6
F1.0
sg7
g52
sg8
F1108576.0
sg9
F1.0
sg10
S'192.168.1.25'
p55
sg12
F1.0
sg13
F1108576.0
sbsS'VM_Task_18'
p56
(iGuest
Guest
p57
(dp58
g6
F1.0
sg7
g56
sg8
F1108576.0
sg9
F1.0
sg10
S'192.168.1.24'
p59
sg12
F1.0
sg13
F1108576.0
sbsS'VM_Task_15'
p60
(iGuest
Guest
p61
(dp62
g6
F1.0
sg7
g60
sg8
F1108576.0
sg9
F1.0
sg10
S'192.168.1.21'
p63
sg12
F1.0
sg13
F1108576.0
sbsS'VM_Task_17'
p64
(iGuest
Guest
p65
(dp66
g6
F1.0
sg7
g64
sg8
F1108576.0
sg9
F1.0
sg10
S'192.168.1.23'
p67
sg12
F1.0
sg13
F1108576.0
sbsS'VM_Task_16'
p68
(iGuest
Guest
p69
(dp70
g6
F1.0
sg7
g68
sg8
F1108576.0
sg9
F1.0
sg10
S'192.168.1.22'
p71
sg12
F1.0
sg13
F1108576.0
sbssVnode2
p72
(dp73
S'VM_Task_21'
p74
(iGuest
Guest
p75
(dp76
g6
F1.0
sg7
g74
sg8
F1108576.0
sg9
F1.0
sg10
S'192.168.1.28'
p77
sg12
F1.0
sg13
F1108576.0
sbsS'VM_Task_22'
p78
(iGuest
Guest
p79
(dp80
g6
F1.0
sg7
g78
sg8
F1108576.0
sg9
F1.0
sg10
S'192.168.1.29'
p81
sg12
F1.0
sg13
F1108576.0
sbsS'VM_Task_23'
p82
(iGuest
Guest
p83
(dp84
g6
F1.0
sg7
g82
sg8
F1108576.0
sg9
F1.0
sg10
S'192.168.1.30'
p85
sg12
F1.0
sg13
F1108576.0
sbsS'VM_Task_24'
p86
(iGuest
Guest
p87
(dp88
g6
F1.0
sg7
g86
sg8
F1108576.0
sg9
F1.0
sg10
S'192.168.1.35'
p89
sg12
F1.0
sg13
F1108576.0
sbsS'VM_Task_25'
p90
(iGuest
Guest
p91
(dp92
g6
F1.0
sg7
g90
sg8
F1108576.0
sg9
F1.0
sg10
S'192.168.1.36'
p93
sg12
F1.0
sg13
F1108576.0
sbsS'VM_Task_26'
p94
(iGuest
Guest
p95
(dp96
g6
F1.0
sg7
g94
sg8
F1108576.0
sg9
F1.0
sg10
S'192.168.1.37'
p97
sg12
F1.0
sg13
F1108576.0
sbsS'VM_Task_27'
p98
(iGuest
Guest
p99
(dp100
g6
F1.0
sg7
g98
sg8
F1108576.0
sg9
F1.0
sg10
S'192.168.1.38'
p101
sg12
F1.0
sg13
F1108576.0
sbssVnode4
p102
(dp103
S'VM_Task_3'
p104
(iGuest
Guest
p105
(dp106
g6
F1.0
sg7
g104
sg8
F1108576.0
sg9
F1.0
sg10
S'192.168.1.41'
p107
sg12
F1.0
sg13
F1108576.0
sbsS'VM_Task_33'
p108
(iGuest
Guest
p109
(dp110
g6
F1.0
sg7
g108
sg8
F1108576.0
sg9
F1.0
sg10
S'192.168.1.45'
p111
sg12
F1.0
sg13
F1108576.0
sbsS'VM_Task_32'
p112
(iGuest
Guest
p113
(dp114
g6
F1.0
sg7
g112
sg8
F1108576.0
sg9
F1.0
sg10
S'192.168.1.44'
p115
sg12
F1.0
sg13
F1108576.0
sbsS'VM_Task_31'
p116
(iGuest
Guest
p117
(dp118
g6
F1.0
sg7
g116
sg8
F1108576.0
sg9
F1.0
sg10
S'192.168.1.43'
p119
sg12
F1.0
sg13
F1108576.0
sbsS'VM_Task_30'
p120
(iGuest
Guest
p121
(dp122
g6
F1.0
sg7
g120
sg8
F1108576.0
sg9
F1.0
sg10
S'192.168.1.42'
p123
sg12
F1.0
sg13
F1108576.0
sbsS'VM_Task_28'
p124
(iGuest
Guest
p125
(dp126
g6
F1.0
sg7
g124
sg8
F1108576.0
sg9
F1.0
sg10
S'192.168.1.39'
p127
sg12
F1.0
sg13
F1108576.0
sbsS'VM_Task_29'
p128
(iGuest
Guest
p129
(dp130
g6
F1.0
sg7
g128
sg8
F1108576.0
sg9
F1.0
sg10
S'192.168.1.40'
p131
sg12
F1.0
sg13
F1108576.0
sbss.