(dp0
Vnode1
p1
(dp2
S'VM_Task_1'
p3
(iGuest
Guest
p4
(dp5
S'max_cpu'
p6
F1.0
sS'vmid'
p7
g3
sS'max_memory'
p8
F1108576.0
sS'io'
p9
F1.0
sS'vmip'
p10
S'192.168.1.36'
p11
sS'current_cpu'
p12
F1.0
sS'current_memory'
p13
F1108576.0
sbsS'VM_Task_100'
p14
(iGuest
Guest
p15
(dp16
g6
F1.0
sg7
g14
sg8
F1108576.0
sg9
F1.0
sg10
S'192.168.1.38'
p17
sg12
F1.0
sg13
F1108576.0
sbsS'VM_Task_14'
p18
(iGuest
Guest
p19
(dp20
g6
F1.0
sg7
g18
sg8
F1108576.0
sg9
F1.0
sg10
S'192.168.1.43'
p21
sg12
F1.0
sg13
F1108576.0
sbsS'VM_Task_11'
p22
(iGuest
Guest
p23
(dp24
g6
F1.0
sg7
g22
sg8
F1108576.0
sg9
F1.0
sg10
S'192.168.1.40'
p25
sg12
F1.0
sg13
F1108576.0
sbsS'VM_Task_10'
p26
(iGuest
Guest
p27
(dp28
g6
F1.0
sg7
g26
sg8
F1108576.0
sg9
F1.0
sg10
S'192.168.1.37'
p29
sg12
F1.0
sg13
F1108576.0
sbsS'VM_Task_13'
p30
(iGuest
Guest
p31
(dp32
g6
F1.0
sg7
g30
sg8
F1108576.0
sg9
F1.0
sg10
S'192.168.1.42'
p33
sg12
F1.0
sg13
F1108576.0
sbsS'VM_Task_12'
p34
(iGuest
Guest
p35
(dp36
g6
F1.0
sg7
g34
sg8
F1108576.0
sg9
F1.0
sg10
S'192.168.1.41'
p37
sg12
F1.0
sg13
F1108576.0
sbssVnode3
p38
(dp39
S'VM_Task_2'
p40
(iGuest
Guest
p41
(dp42
g6
F1.0
sg7
g40
sg8
F1108576.0
sg9
F1.0
sg10
S'192.168.1.50'
p43
sg12
F1.0
sg13
F1108576.0
sbsS'VM_Task_20'
p44
(iGuest
Guest
p45
(dp46
g6
F1.0
sg7
g44
sg8
F1108576.0
sg9
F1.0
sg10
S'192.168.1.51'
p47
sg12
F1.0
sg13
F1108576.0
sbsS'VM_Task_19'
p48
(iGuest
Guest
p49
(dp50
g6
F1.0
sg7
g48
sg8
F1108576.0
sg9
F1.0
sg10
S'192.168.1.49'
p51
sg12
F1.0
sg13
F1108576.0
sbsS'VM_Task_18'
p52
(iGuest
Guest
p53
(dp54
g6
F1.0
sg7
g52
sg8
F1108576.0
sg9
F1.0
sg10
S'192.168.1.48'
p55
sg12
F1.0
sg13
F1108576.0
sbsS'VM_Task_15'
p56
(iGuest
Guest
p57
(dp58
g6
F1.0
sg7
g56
sg8
F1108576.0
sg9
F1.0
sg10
S'192.168.1.44'
p59
sg12
F1.0
sg13
F1108576.0
sbsS'VM_Task_17'
p60
(iGuest
Guest
p61
(dp62
g6
F1.0
sg7
g60
sg8
F1108576.0
sg9
F1.0
sg10
S'192.168.1.46'
p63
sg12
F1.0
sg13
F1108576.0
sbsS'VM_Task_16'
p64
(iGuest
Guest
p65
(dp66
g6
F1.0
sg7
g64
sg8
F1108576.0
sg9
F1.0
sg10
S'192.168.1.45'
p67
sg12
F1.0
sg13
F1108576.0
sbssVnode2
p68
(dp69
S'VM_Task_21'
p70
(iGuest
Guest
p71
(dp72
g6
F1.0
sg7
g70
sg8
F1108576.0
sg9
F1.0
sg10
S'192.168.1.52'
p73
sg12
F1.0
sg13
F1108576.0
sbsS'VM_Task_22'
p74
(iGuest
Guest
p75
(dp76
g6
F1.0
sg7
g74
sg8
F1108576.0
sg9
F1.0
sg10
S'192.168.1.54'
p77
sg12
F1.0
sg13
F1108576.0
sbsS'VM_Task_23'
p78
(iGuest
Guest
p79
(dp80
g6
F1.0
sg7
g78
sg8
F1108576.0
sg9
F1.0
sg10
S'192.168.1.55'
p81
sg12
F1.0
sg13
F1108576.0
sbsS'VM_Task_24'
p82
(iGuest
Guest
p83
(dp84
g6
F1.0
sg7
g82
sg8
F1108576.0
sg9
F1.0
sg10
S'192.168.1.56'
p85
sg12
F1.0
sg13
F1108576.0
sbsS'VM_Task_25'
p86
(iGuest
Guest
p87
(dp88
g6
F1.0
sg7
g86
sg8
F1108576.0
sg9
F1.0
sg10
S'192.168.1.6'
p89
sg12
F1.0
sg13
F1108576.0
sbsS'VM_Task_26'
p90
(iGuest
Guest
p91
(dp92
g6
F1.0
sg7
g90
sg8
F1108576.0
sg9
F1.0
sg10
S'192.168.1.7'
p93
sg12
F1.0
sg13
F1108576.0
sbsS'VM_Task_27'
p94
(iGuest
Guest
p95
(dp96
g6
F1.0
sg7
g94
sg8
F1108576.0
sg9
F1.0
sg10
S'192.168.1.8'
p97
sg12
F1.0
sg13
F1108576.0
sbssVnode4
p98
(dp99
s.