(dp0
Vnode1
p1
(dp2
S'Task1'
p3
(iGuest
Guest
p4
(dp5
S'max_cpu'
p6
F3.0
sS'vmid'
p7
S'Task1'
p8
sS'max_memory'
p9
F424242.0
sS'io'
p10
F1.0
sS'vmip'
p11
S'192.168.1.14'
p12
sS'current_cpu'
p13
F1.0
sS'current_memory'
p14
F42424345353.0
sbsS'VM_Task_1'
p15
(iGuest
Guest
p16
(dp17
g6
F1.0
sg7
S'VM_Task_1'
p18
sg9
F1108576.0
sg10
F1.0
sg11
S'192.168.1.19'
p19
sg13
F1.0
sg14
F1108576.0
sbsS'VM_Task_13'
p20
(iGuest
Guest
p21
(dp22
g6
F1.0
sg7
g20
sg9
F1108576.0
sg10
F1.0
sg11
S'192.168.1.24'
p23
sg13
F1.0
sg14
F1108576.0
sbsS'VM_Task_11'
p24
(iGuest
Guest
p25
(dp26
g6
F1.0
sg7
g24
sg9
F1108576.0
sg10
F1.0
sg11
S'192.168.1.22'
p27
sg13
F1.0
sg14
F1108576.0
sbsS'VM_Task_10'
p28
(iGuest
Guest
p29
(dp30
g6
F1.0
sg7
S'VM_Task_10'
p31
sg9
F1108576.0
sg10
F1.0
sg11
S'192.168.1.20'
p32
sg13
F1.0
sg14
F1108576.0
sbsS'VM_Task_100'
p33
(iGuest
Guest
p34
(dp35
g6
F1.0
sg7
S'VM_Task_100'
p36
sg9
F1108576.0
sg10
F1.0
sg11
S'192.168.1.21'
p37
sg13
F1.0
sg14
F1108576.0
sbsS'VM_Task_12'
p38
(iGuest
Guest
p39
(dp40
g6
F1.0
sg7
g38
sg9
F1108576.0
sg10
F1.0
sg11
S'192.168.1.23'
p41
sg13
F1.0
sg14
F1108576.0
sbssVnode3
p42
(dp43
S'VM_Task_2'
p44
(iGuest
Guest
p45
(dp46
g6
F1.0
sg7
g44
sg9
F1108576.0
sg10
F1.0
sg11
S'192.168.1.35'
p47
sg13
F1.0
sg14
F1108576.0
sbsS'VM_Task_19'
p48
(iGuest
Guest
p49
(dp50
g6
F1.0
sg7
g48
sg9
F1108576.0
sg10
F1.0
sg11
S'192.168.1.30'
p51
sg13
F1.0
sg14
F1108576.0
sbsS'VM_Task_18'
p52
(iGuest
Guest
p53
(dp54
g6
F1.0
sg7
g52
sg9
F1108576.0
sg10
F1.0
sg11
S'192.168.1.29'
p55
sg13
F1.0
sg14
F1108576.0
sbsS'VM_Task_15'
p56
(iGuest
Guest
p57
(dp58
g6
F1.0
sg7
g56
sg9
F1108576.0
sg10
F1.0
sg11
S'192.168.1.26'
p59
sg13
F1.0
sg14
F1108576.0
sbsS'VM_Task_14'
p60
(iGuest
Guest
p61
(dp62
g6
F1.0
sg7
g60
sg9
F1108576.0
sg10
F1.0
sg11
S'192.168.1.25'
p63
sg13
F1.0
sg14
F1108576.0
sbsS'VM_Task_17'
p64
(iGuest
Guest
p65
(dp66
g6
F1.0
sg7
g64
sg9
F1108576.0
sg10
F1.0
sg11
S'192.168.1.28'
p67
sg13
F1.0
sg14
F1108576.0
sbsS'VM_Task_16'
p68
(iGuest
Guest
p69
(dp70
g6
F1.0
sg7
g68
sg9
F1108576.0
sg10
F1.0
sg11
S'192.168.1.27'
p71
sg13
F1.0
sg14
F1108576.0
sbssVnode2
p72
(dp73
S'VM_Task_20'
p74
(iGuest
Guest
p75
(dp76
g6
F1.0
sg7
g74
sg9
F1108576.0
sg10
F1.0
sg11
S'192.168.1.36'
p77
sg13
F1.0
sg14
F1108576.0
sbsS'VM_Task_21'
p78
(iGuest
Guest
p79
(dp80
g6
F1.0
sg7
g78
sg9
F1108576.0
sg10
F1.0
sg11
S'192.168.1.37'
p81
sg13
F1.0
sg14
F1108576.0
sbsS'VM_Task_22'
p82
(iGuest
Guest
p83
(dp84
g6
F1.0
sg7
g82
sg9
F1108576.0
sg10
F1.0
sg11
S'192.168.1.38'
p85
sg13
F1.0
sg14
F1108576.0
sbsS'VM_Task_23'
p86
(iGuest
Guest
p87
(dp88
g6
F1.0
sg7
g86
sg9
F1108576.0
sg10
F1.0
sg11
S'192.168.1.39'
p89
sg13
F1.0
sg14
F1108576.0
sbsS'VM_Task_24'
p90
(iGuest
Guest
p91
(dp92
g6
F1.0
sg7
g90
sg9
F1108576.0
sg10
F1.0
sg11
S'192.168.1.40'
p93
sg13
F1.0
sg14
F1108576.0
sbsS'VM_Task_25'
p94
(iGuest
Guest
p95
(dp96
g6
F1.0
sg7
g94
sg9
F1108576.0
sg10
F1.0
sg11
S'192.168.1.41'
p97
sg13
F1.0
sg14
F1108576.0
sbsS'VM_Task_26'
p98
(iGuest
Guest
p99
(dp100
g6
F1.0
sg7
g98
sg9
F1108576.0
sg10
F1.0
sg11
S'192.168.1.42'
p101
sg13
F1.0
sg14
F1108576.0
sbssVnode4
p102
(dp103
s.