(dp0
Vnode1
p1
(iHost_machine_info_tracker
Node
p2
(dp3
S'max_cpu'
p4
I8
sS'hostname'
p5
g1
sS'max_memory'
p6
I32
sS'avail_cpu'
p7
I7
sS'max_io'
p8
I1
sS'avail_io'
p9
I1
sS'avail_memory'
p10
I32
sbsVnode3
p11
(iHost_machine_info_tracker
Node
p12
(dp13
g4
I8
sg5
g11
sg6
I32
sg7
I7
sg8
I1
sg9
I1
sg10
I32
sbsVnode2
p14
(iHost_machine_info_tracker
Node
p15
(dp16
g4
I8
sg5
g14
sg6
I32
sg7
I7
sg8
I1
sg9
I1
sg10
I32
sbsVnode4
p17
(iHost_machine_info_tracker
Node
p18
(dp19
g4
I8
sg5
g17
sg6
I32
sg7
I7
sg8
I1
sg9
I1
sg10
I32
sbs.