(dp0
Vnode1
p1
(iNode
Node
p2
(dp3
S'max_cpu'
p4
F8.0
sS'ip_address'
p5
S'192.168.1.11'
p6
sS'hostname'
p7
S'node1'
p8
sS'max_memory'
p9
F32689796.0
sS'max_io'
p10
F1073741824.0
sS'avail_io'
p11
F1044381696.0
sS'avail_memory'
p12
F17589732.0
sS'avail_cpu'
p13
F0.0
sbsVnode3
p14
(iNode
Node
p15
(dp16
g4
F8.0
sg5
S'192.168.1.13'
p17
sg7
S'node3'
p18
sg9
F32689796.0
sg10
F1073741824.0
sg11
F1044381696.0
sg12
F17589732.0
sg13
F0.0
sbsVnode2
p19
(iNode
Node
p20
(dp21
g4
F8.0
sg11
F1069547520.0
sg7
S'node2'
p22
sg9
F32689796.0
sg13
F6.0
sg10
F1073741824.0
sg5
S'192.168.1.12'
p23
sg12
F30532644.0
sbsVnode4
p24
(iNode
Node
p25
(dp26
g4
F8.0
sg5
S'192.168.1.14'
p27
sg7
S'node4'
p28
sg9
F32689796.0
sg10
F1073741824.0
sg11
F1073741824.0
sg12
F32689796.0
sg13
F7.0
sbs.