(dp0
Vnode1
p1
(iNode
Node
p2
(dp3
S'max_cpu'
p4
I8
sS'hostname'
p5
g1
sS'max_memory'
p6
I32689796
sS'max_io'
p7
I1
sS'avail_io'
p8
I0
sS'avail_memory'
p9
I28495492
sS'avail_cpu'
p10
I5
sbsVnode3
p11
(iNode
Node
p12
(dp13
g4
I8
sg5
g11
sg6
I32689796
sg7
I1
sg8
I1
sg9
I32689796
sg10
I7
sbsVnode2
p14
(iNode
Node
p15
(dp16
g4
I8
sg5
g14
sg6
I32689796
sg7
I1
sg8
I1
sg9
I32689796
sg10
I7
sbsVnode4
p17
(iNode
Node
p18
(dp19
g4
I8
sg5
g17
sg6
I32689796
sg7
I1
sg8
I1
sg9
I32689796
sg10
I7
sbs.